(dp0
S'stock'
p1
I4462
sS'limited'
p2
I3272
sS'todays'
p3
I4203
sS'womans'
p4
I2218
sS'magnetic'
p5
I277
sS'personally'
p6
I3006
sS'dynamic'
p7
I1135
sS'all'
p8
I1481
sS'yellow'
p9
I1133
sS'everybody'
p10
I4304
sS'four'
p11
I2358
sS'facilities'
p12
I3273
sS'protest'
p13
I1138
sS'woods'
p14
I0
sS'sleep'
p15
I4533
sS'hanging'
p16
I1
sS'consists'
p17
I565
sS'captain'
p18
I4204
sS'hate'
p19
I2074
sS'towns'
p20
I1372
sS'forget'
p21
I4376
sS'relationships'
p22
I3896
sS'increase'
p23
I2757
sS'feeding'
p24
I4535
sS'chinese'
p25
I3435
sS'aug'
p26
I566
sS'electricity'
p27
I1134
sS'crises'
p28
I3274
sS'contained'
p29
I2949
sS'james'
p30
I3994
sS'containing'
p31
I2129
sS'presents'
p32
I4205
sS'contributed'
p33
I3588
sS'certain'
p34
I3744
sS'voted'
p35
I3898
sS'under'
p36
I3275
sS'patchen'
p37
I4537
sS'lord'
p38
I3584
sS'sorry'
p39
I567
sS'pride'
p40
I2075
sS'worth'
p41
I278
sS'1958'
p42
I2752
sS'apparatus'
p43
I3822
sS'lack'
p44
I4672
sS'unfortunately'
p45
I3394
sS'emerged'
p46
I3058
sS'desirable'
p47
I2644
sS'blanket'
p48
I1483
sS'regional'
p49
I1136
sS'anglosaxon'
p50
I2645
sS'song'
p51
I4673
sS'handling'
p52
I3585
sS'every'
p53
I2076
sS'jack'
p54
I3277
sS'formula'
p55
I3682
sS'affect'
p56
I1788
sS'bringing'
p57
I2
sS'vast'
p58
I2950
sS'look'
p59
I2863
sS'school'
p60
I857
sS'prize'
p61
I1137
sS'beam'
p62
I4492
sS'wooden'
p63
I3
sS'companies'
p64
I1789
sS'wednesday'
p65
I4
sS'solid'
p66
I4426
sS'fogg'
p67
I1484
sS'phase'
p68
I3931
sS'shouting'
p69
I2002
sS'succession'
p70
I1139
sS'broadway'
p71
I3763
sS'muscles'
p72
I4401
sS'artist'
p73
I3713
sS'sponsored'
p74
I4077
sS'heading'
p75
I1166
sS'triumph'
p76
I2648
sS'clothes'
p77
I1794
sS'enjoy'
p78
I2077
sS'charter'
p79
I1141
sS'force'
p80
I4208
sS'leaders'
p81
I2078
sS'tired'
p82
I3586
sS'miller'
p83
I1142
sS'consistent'
p84
I3279
sS'welfare'
p85
I2501
sS'estimates'
p86
I2080
sS'direct'
p87
I591
sS'empirical'
p88
I1143
sS'surrounding'
p89
I4540
sS'likely'
p90
I568
sS'street'
p91
I2081
sS'arms'
p92
I4219
sS'estimated'
p93
I2082
sS'machines'
p94
I279
sS'shining'
p95
I2083
sS'blue'
p96
I858
sS'established'
p97
I1485
sS'errors'
p98
I5
sS'hide'
p99
I859
sS'christ'
p100
I4541
sS'decisions'
p101
I997
sS'meals'
p102
I3742
sS'cooking'
p103
I6
sS'orchestra'
p104
I2951
sS'fingers'
p105
I3589
sS'supplied'
p106
I597
sS'assembled'
p107
I4534
sS'lights'
p108
I4212
sS'above'
p109
I4250
sS'conduct'
p110
I2084
sS'supplies'
p111
I862
sS'net'
p112
I1796
sS'increasing'
p113
I1144
sS'ever'
p114
I1183
sS'consisting'
p115
I3900
sS'told'
p116
I3901
sS'hero'
p117
I3590
sS'whose'
p118
I2948
sS'join'
p119
I3035
sS'men'
p120
I569
sS'stared'
p121
I2085
sS'drew'
p122
I1798
sS'hundreds'
p123
I2086
sS'met'
p124
I570
sS'protection'
p125
I280
sS'china'
p126
I7
sS'governing'
p127
I2952
sS'represented'
p128
I3281
sS'path'
p129
I2088
sS'100'
p130
I2953
sS'films'
p131
I3671
sS'obtained'
p132
I281
sS'darkness'
p133
I4051
sS'kids'
p134
I8
sS'daughter'
p135
I2650
sS'covers'
p136
I4285
sS'items'
p137
I2651
sS'k'
p138
I55
sS'climbed'
p139
I9
sS'completely'
p140
I2909
sS'reports'
p141
I3595
sS'controversy'
p142
I10
sS'physiological'
p143
I1482
sS'fulltime'
p144
I2089
sS'procedure'
p145
I3329
sS'smoke'
p146
I1488
sS'stressed'
p147
I282
sS'military'
p148
I1146
sS'theres'
p149
I2285
sS'settled'
p150
I864
sS'punishment'
p151
I3283
sS'york'
p152
I4752
sS'criticism'
p153
I2362
sS'golden'
p154
I11
sS'secure'
p155
I1490
sS'classification'
p156
I3596
sS'belongs'
p157
I2702
sS'explained'
p158
I1147
sS'julia'
p159
I3284
sS'feelings'
p160
I2090
sS'county'
p161
I1799
sS'patience'
p162
I865
sS'pound'
p163
I3794
sS'moral'
p164
I4216
sS'guests'
p165
I572
sS'stern'
p166
I12
sS'ekstrohm'
p167
I1491
sS'glance'
p168
I1492
sS'removal'
p169
I2241
sS'philip'
p170
I3541
sS'unit'
p171
I3598
sS'sarah'
p172
I283
sS'plot'
p173
I284
sS'reflected'
p174
I1691
sS'spoke'
p175
I1148
sS'would'
p176
I866
sS'army'
p177
I4217
sS'found'
p178
I2521
sS'keith'
p179
I4218
sS'hospital'
p180
I630
sS'indians'
p181
I1493
sS'negative'
p182
I2654
sS'suit'
p183
I2567
sS'symphony'
p184
I2364
sS'music'
p185
I13
sS'therefore'
p186
I14
sS'recommend'
p187
I1800
sS'strike'
p188
I2365
sS'survive'
p189
I573
sS'type'
p190
I1801
sS'tell'
p191
I1802
sS'1000'
p192
I2186
sS'separated'
p193
I286
sS'main'
p194
I4321
sS'holy'
p195
I3600
sS'successful'
p196
I1150
sS'brings'
p197
I3601
sS'wars'
p198
I2958
sS'award'
p199
I2655
sS'hurt'
p200
I1151
sS'henry'
p201
I4545
sS'phone'
p202
I1053
sS'berlin'
p203
I574
sS'warm'
p204
I2959
sS'adult'
p205
I2960
sS'shelters'
p206
I1803
sS'excellent'
p207
I867
sS'organic'
p208
I1089
sS'ward'
p209
I2961
sS'hoag'
p210
I2857
sS'companys'
p211
I3286
sS'origin'
p212
I3287
sS'circumstances'
p213
I15
sS'shoot'
p214
I2092
sS'driven'
p215
I4652
sS'locked'
p216
I16
sS'room'
p217
I575
sS'permits'
p218
I1495
sS'work'
p219
I3906
sS'roof'
p220
I576
sS'movies'
p221
I577
sS'era'
p222
I288
sS'mr'
p223
I2094
sS'exceptions'
p224
I578
sS'experts'
p225
I3331
sS'revenues'
p226
I2366
sS'root'
p227
I579
sS'route'
p228
I1746
sS'shook'
p229
I3039
sS'estate'
p230
I868
sS'give'
p231
I1805
sS'household'
p232
I1152
sS'floor'
p233
I3660
sS'organized'
p234
I1153
sS'sick'
p235
I4795
sS'involve'
p236
I3864
sS'indicates'
p237
I290
sS'foods'
p238
I3672
sS'want'
p239
I17
sS'peoples'
p240
I3493
sS'harold'
p241
I4478
sS'appearance'
p242
I4504
sS'david'
p243
I1431
sS'association'
p244
I3151
sS'absolute'
p245
I18
sS'end'
p246
I2096
sS'recovery'
p247
I291
sS'thing'
p248
I3060
sS'provide'
p249
I292
sS'travel'
p250
I19
sS'returning'
p251
I3124
sS'nuts'
p252
I293
sS'damage'
p253
I1154
sS'grows'
p254
I4267
sS'machine'
p255
I1155
sS'delay'
p256
I2590
sS'sixties'
p257
I1253
sS'writers'
p258
I2097
sS'significance'
p259
I3610
sS'boats'
p260
I1496
sS'record'
p261
I2354
sS'ordinary'
p262
I1497
sS'beach'
p263
I2657
sS'massive'
p264
I3687
sS'badly'
p265
I3288
sS'rise'
p266
I4539
sS'description'
p267
I671
sS'beauty'
p268
I2456
sS'mess'
p269
I2098
sS'after'
p270
I1891
sS'loyalty'
p271
I1068
sS'less'
p272
I3868
sS'davis'
p273
I1432
sS'wrong'
p274
I103
sS'lay'
p275
I3910
sS'curiosity'
p276
I4223
sS'president'
p277
I2962
sS'law'
p278
I3911
sS'meaningful'
p279
I4328
sS'parallel'
p280
I869
sS'types'
p281
I2370
sS'slavery'
p282
I2663
sS'purchase'
p283
I4224
sS'attempt'
p284
I2963
sS'third'
p285
I580
sS'occasions'
p286
I2835
sS'communities'
p287
I3457
sS'fibers'
p288
I3796
sS'appreciate'
p289
I294
sS'exhibition'
p290
I2291
sS'childhood'
p291
I3384
sS'greek'
p292
I1498
sS'maintain'
p293
I4225
sS'green'
p294
I1499
sS'ultimate'
p295
I677
sS'enter'
p296
I2099
sS'operate'
p297
I581
sS'order'
p298
I3912
sS'wind'
p299
I1157
sS'wine'
p300
I1158
sS'operations'
p301
I4227
sS'blind'
p302
I386
sS'interpretation'
p303
I3086
sS'office'
p304
I3913
sS'deck'
p305
I4228
sS'over'
p306
I4548
sS'vary'
p307
I1159
sS'satisfied'
p308
I3914
sS'thousands'
p309
I4763
sS'presence'
p310
I4590
sS'london'
p311
I3289
sS'staining'
p312
I583
sS'encounter'
p313
I2964
sS'mayor'
p314
I1501
sS'before'
p315
I584
sS'craft'
p316
I4580
sS'produced'
p317
I3845
sS'fit'
p318
I21
sS'personal'
p319
I585
sS'revenue'
p320
I3385
sS'expectations'
p321
I2100
sS'crew'
p322
I586
sS'better'
p323
I4229
sS'production'
p324
I295
sS'fig'
p325
I22
sS'400'
p326
I872
sS'weeks'
p327
I2965
sS'easier'
p328
I2371
sS'shear'
p329
I3915
sS'inventory'
p330
I2132
sS'eventually'
p331
I3916
sS'coffee'
p332
I296
sS'affected'
p333
I1504
sS'combination'
p334
I587
sS'prevented'
p335
I873
sS'weakness'
p336
I4231
sS'plaster'
p337
I2101
sS'safe'
p338
I297
sS'break'
p339
I3917
sS'band'
p340
I2661
sS'effects'
p341
I23
sS'they'
p342
I1505
sS'podger'
p343
I1506
sS'schools'
p344
I2372
sS'bronchial'
p345
I2966
sS'strategic'
p346
I3235
sS'silver'
p347
I1160
sS'bank'
p348
I2662
sS'structural'
p349
I2481
sS'represents'
p350
I1161
sS'ruth'
p351
I4430
sS'alex'
p352
I874
sS'meat'
p353
I2967
sS'married'
p354
I3209
sS'engineers'
p355
I4715
sS'reasonably'
p356
I299
sS'barton'
p357
I24
sS'l'
p358
I300
sS'detroit'
p359
I875
sS'rocks'
p360
I2664
sS'skills'
p361
I4207
sS'filling'
p362
I2102
sS'charged'
p363
I4029
sS'newport'
p364
I4552
sS'victory'
p365
I3108
sS'reasonable'
p366
I301
sS'discipline'
p367
I3191
sS'went'
p368
I4233
sS'entitled'
p369
I2795
sS'meal'
p370
I3179
sS'bone'
p371
I2969
sS'alec'
p372
I877
sS'lifted'
p373
I2665
sS'financial'
p374
I1162
sS'suspended'
p375
I3063
sS'meets'
p376
I614
sS'series'
p377
I2374
sS'arc'
p378
I4701
sS'displacement'
p379
I1163
sS'honey'
p380
I4221
sS'solution'
p381
I1790
sS'carry'
p382
I1894
sS'taught'
p383
I1808
sS'trading'
p384
I588
sS'corporations'
p385
I1809
sS'substantially'
p386
I2375
sS'aids'
p387
I589
sS'dawn'
p388
I1810
sS'saturday'
p389
I878
sS'merchants'
p390
I590
sS'drove'
p391
I2767
sS'gorton'
p392
I1811
sS'driving'
p393
I4553
sS'god'
p394
I2104
sS'tales'
p395
I2972
sS'passengers'
p396
I2433
sS'crucial'
p397
I2973
sS'forty'
p398
I1507
sS'mason'
p399
I25
sS'content'
p400
I1308
sS'method'
p401
I3749
sS'encourage'
p402
I26
sS'branch'
p403
I4780
sS'reader'
p404
I2974
sS'medicine'
p405
I2666
sS'surprise'
p406
I1812
sS'newly'
p407
I881
sS'millions'
p408
I2187
sS'forth'
p409
I1508
sS'independence'
p410
I882
sS'foundation'
p411
I2376
sS'perception'
p412
I4554
sS'turning'
p413
I4235
sS'linear'
p414
I4236
sS'assured'
p415
I1165
sS'associate'
p416
I724
sS'strategy'
p417
I4189
sS'cholesterol'
p418
I1793
sS'threatened'
p419
I2377
sS'given'
p420
I3387
sS'free'
p421
I4555
sS'standard'
p422
I2667
sS'ancient'
p423
I3236
sS'formation'
p424
I3129
sS'struggle'
p425
I2975
sS'checked'
p426
I2768
sS'estimate'
p427
I27
sS'wanted'
p428
I4558
sS'chlorine'
p429
I28
sS'publication'
p430
I3542
sS'alienation'
p431
I4135
sS'enormous'
p432
I2378
sS'perform'
p433
I2697
sS'created'
p434
I2668
sS'starts'
p435
I4237
sS'ritual'
p436
I3297
sS'longterm'
p437
I883
sS'days'
p438
I733
sS'bears'
p439
I4148
sS'disturbed'
p440
I29
sS'kingdom'
p441
I3793
sS'arrived'
p442
I2286
sS'broken'
p443
I1929
sS'onto'
p444
I3298
sS'cleaning'
p445
I4103
sS'eileen'
p446
I3278
sS'rang'
p447
I3299
sS'already'
p448
I2106
sS'features'
p449
I2976
sS'clinical'
p450
I3955
sS'grade'
p451
I4238
sS'primary'
p452
I743
sS'rank'
p453
I3300
sS'hearing'
p454
I3301
sS'channels'
p455
I2380
sS'wash'
p456
I1167
sS'philosophical'
p457
I4561
sS'relations'
p458
I4149
sS'another'
p459
I302
sS'thick'
p460
I3337
sS'clarity'
p461
I2381
sS'electronic'
p462
I303
sS'agriculture'
p463
I1427
sS'fence'
p464
I4049
sS'service'
p465
I30
sS'similarly'
p466
I3616
sS'undoubtedly'
p467
I4330
sS'top'
p468
I3302
sS'engagement'
p469
I1168
sS'girls'
p470
I1814
sS'cooling'
p471
I3390
sS'approximately'
p472
I304
sS'fiction'
p473
I751
sS'needed'
p474
I31
sS'master'
p475
I32
sS'listed'
p476
I1170
sS'tom'
p477
I3304
sS'draft'
p478
I3689
sS'hollywood'
p479
I2977
sS'john'
p480
I305
sS'bitter'
p481
I3617
sS'dogs'
p482
I306
sS'listen'
p483
I1172
sS'urban'
p484
I752
sS'ceiling'
p485
I2108
sS'murder'
p486
I3305
sS'luncheon'
p487
I1510
sS'realization'
p488
I3690
sS'serve'
p489
I2110
sS'took'
p490
I2111
sS'rejected'
p491
I3922
sS'wisdom'
p492
I1173
sS'technique'
p493
I4293
sS'western'
p494
I2112
sS'somewhat'
p495
I4241
sS'hadnt'
p496
I3776
sS'kept'
p497
I1537
sS'kennedys'
p498
I1511
sS'maintaining'
p499
I3680
sS'peculiar'
p500
I4242
sS'character'
p501
I3016
sS'begins'
p502
I592
sS'distance'
p503
I2978
sS'anxiety'
p504
I4243
sS'target'
p505
I3923
sS'showed'
p506
I2382
sS'tree'
p507
I2383
sS'rate'
p508
I2248
sS'seated'
p509
I2672
sS'nations'
p510
I3620
sS'project'
p511
I2384
sS'matter'
p512
I1815
sS'classes'
p513
I4564
sS'guilt'
p514
I307
sS'friend'
p515
I1607
sS'historical'
p516
I308
sS'budget'
p517
I187
sS'feeling'
p518
I33
sS'powers'
p519
I3925
sS'perspective'
p520
I723
sS'bridge'
p521
I887
sS'fashion'
p522
I2113
sS'sees'
p523
I2980
sS'palace'
p524
I593
sS'ran'
p525
I4565
sS'boston'
p526
I3621
sS'modern'
p527
I2981
sS'mind'
p528
I2982
sS'mine'
p529
I2983
sS'glass'
p530
I3602
sS'anybody'
p531
I2288
sS'talking'
p532
I2114
sS'seed'
p533
I2984
sS'manner'
p534
I1512
sS'stomach'
p535
I1513
sS'seem'
p536
I2986
sS'seek'
p537
I2987
sS'tells'
p538
I3797
sS'alive'
p539
I4520
sS'dozen'
p540
I34
sS'affairs'
p541
I35
sS'strength'
p542
I1514
sS'genuine'
p543
I3927
sS'concrete'
p544
I2555
sS'achievement'
p545
I4694
sS'convenient'
p546
I309
sS'latter'
p547
I2673
sS'responsible'
p548
I1175
sS'1960'
p549
I3308
sS'1961'
p550
I771
sS'thorough'
p551
I889
sS'casual'
p552
I4050
sS'recommended'
p553
I2386
sS'subjects'
p554
I310
sS'absorbed'
p555
I3622
sS'luxury'
p556
I2674
sS'doors'
p557
I2387
sS'laughed'
p558
I1286
sS'effectiveness'
p559
I2115
sS'completed'
p560
I3239
sS'middleclass'
p561
I1517
sS'circles'
p562
I3929
sS'even'
p563
I4210
sS'acquire'
p564
I817
sS'though'
p565
I3311
sS'object'
p566
I3624
sS'maris'
p567
I594
sS'extending'
p568
I3930
sS'involving'
p569
I2675
sS'mouth'
p570
I36
sS'negro'
p571
I4481
sS'letter'
p572
I1176
sS'organization'
p573
I4433
sS'exercises'
p574
I2676
sS'oil'
p575
I3095
sS'panic'
p576
I4743
sS'the'
p577
I1539
sS'grave'
p578
I313
sS'morality'
p579
I2568
sS'stupid'
p580
I4342
sS'don'
p581
I2989
sS'observation'
p582
I595
sS'antitrust'
p583
I1177
sS'professor'
p584
I1178
sS'camp'
p585
I2389
sS'flow'
p586
I2116
sS'dog'
p587
I2991
sS'passes'
p588
I4065
sS'musical'
p589
I335
sS'reputation'
p590
I785
sS'aunt'
p591
I314
sS'principle'
p592
I2992
sS'enterprise'
p593
I2117
sS'nineteenth'
p594
I3625
sS'voting'
p595
I2678
sS'consumer'
p596
I2993
sS'section'
p597
I1311
sS'came'
p598
I2390
sS'reserve'
p599
I315
sS'advisory'
p600
I1179
sS'selected'
p601
I860
sS'bomb'
p602
I1180
sS'isolated'
p603
I4567
sS'insects'
p604
I2391
sS'lewis'
p605
I316
sS'meetings'
p606
I2392
sS'queen'
p607
I191
sS'ending'
p608
I4247
sS'colors'
p609
I890
sS'radio'
p610
I3313
sS'liberty'
p611
I861
sS'rector'
p612
I891
sS'subtle'
p613
I1519
sS'certainly'
p614
I2722
sS'enjoyed'
p615
I2679
sS'capitol'
p616
I2404
sS'provision'
p617
I3992
sS'orleans'
p618
I39
sS'judges'
p619
I1818
sS'guilty'
p620
I3368
sS'consciousness'
p621
I3932
sS'spite'
p622
I892
sS'became'
p623
I4710
sS'situations'
p624
I893
sS'guidance'
p625
I1520
sS'sentence'
p626
I4274
sS'myth'
p627
I2344
sS'sugar'
p628
I2997
sS'here'
p629
I3591
sS'rico'
p630
I40
sS'theme'
p631
I1182
sS'simultaneously'
p632
I3902
sS'getting'
p633
I4789
sS'about'
p634
I3266
sS'rich'
p635
I41
sS'gods'
p636
I2700
sS'adequate'
p637
I2680
sS'rice'
p638
I42
sS'oct'
p639
I4573
sS'personality'
p640
I2681
sS'resulting'
p641
I2584
sS'plate'
p642
I43
sS'mixture'
p643
I2119
sS'colorful'
p644
I1419
sS'di'
p645
I1522
sS'air'
p646
I2692
sS'de'
p647
I1523
sS'stop'
p648
I1422
sS'dc'
p649
I1524
sS'herd'
p650
I3592
sS'coast'
p651
I2998
sS'pocket'
p652
I2394
sS'watson'
p653
I1525
sS'h'
p654
I3860
sS'covered'
p655
I4745
sS'altogether'
p656
I44
sS'report'
p657
I3318
sS'coating'
p658
I4179
sS'du'
p659
I1526
sS'dr'
p660
I1527
sS'tribute'
p661
I4381
sS'becomes'
p662
I4131
sS'societies'
p663
I2395
sS'runs'
p664
I318
sS'bar'
p665
I4252
sS'countries'
p666
I2120
sS'convinced'
p667
I4691
sS'fields'
p668
I1819
sS'public'
p669
I3126
sS'twice'
p670
I2121
sS'bad'
p671
I4255
sS'softly'
p672
I4256
sS'shots'
p673
I2122
sS'release'
p674
I3628
sS'movement'
p675
I4382
sS'automatic'
p676
I3319
sS'90'
p677
I3603
sS'secretary'
p678
I319
sS'respond'
p679
I1184
sS'ethical'
p680
I1820
sS'motel'
p681
I3295
sS'disaster'
p682
I1185
sS'fair'
p683
I1186
sS'habit'
p684
I814
sS'generally'
p685
I4286
sS'sensitivity'
p686
I45
sS'testing'
p687
I600
sS'observed'
p688
I189
sS'depends'
p689
I1528
sS'5000'
p690
I725
sS'bed'
p691
I1750
sS'cattle'
p692
I2683
sS'fail'
p693
I1187
sS'christian'
p694
I1004
sS'activities'
p695
I3438
sS'best'
p696
I1188
sS'techniques'
p697
I321
sS'pete'
p698
I3001
sS'said'
p699
I4257
sS'capacity'
p700
I3243
sS'lots'
p701
I46
sS'away'
p702
I322
sS'gentleman'
p703
I1529
sS'listeners'
p704
I2604
sS'continually'
p705
I895
sS'registration'
p706
I4791
sS'mud'
p707
I896
sS'score'
p708
I1189
sS'finger'
p709
I897
sS'cooperation'
p710
I323
sS'example'
p711
I2367
sS'drawn'
p712
I324
sS'approach'
p713
I3320
sS'discovery'
p714
I898
sS'preserve'
p715
I1190
sS'letting'
p716
I2107
sS'we'
p717
I2685
sS'never'
p718
I1797
sS'terms'
p719
I2686
sS'extend'
p720
I48
sS'nature'
p721
I49
sS'rolled'
p722
I3630
sS'confusion'
p723
I2124
sS'aesthetic'
p724
I3395
sS'weak'
p725
I3321
sS'however'
p726
I832
sS'southeast'
p727
I3322
sS'vernon'
p728
I601
sS'retirement'
p729
I2871
sS'wear'
p730
I3323
sS'extent'
p731
I50
sS'dedication'
p732
I4576
sS'cousin'
p733
I602
sS'atoms'
p734
I2360
sS'kitchen'
p735
I326
sS'suggested'
p736
I603
sS'received'
p737
I3935
sS'climate'
p738
I327
sS'outcome'
p739
I3396
sS'cow'
p740
I1530
sS'reported'
p741
I3593
sS'fault'
p742
I901
sS'ill'
p743
I3936
sS'conclusions'
p744
I1192
sS'heating'
p745
I51
sS'against'
p746
I3002
sS'players'
p747
I4577
sS'games'
p748
I3324
sS'planned'
p749
I2398
sS'faces'
p750
I4578
sS'distinction'
p751
I1822
sS'contribution'
p752
I4259
sS'expense'
p753
I902
sS'confronted'
p754
I4260
sS'workers'
p755
I3496
sS'and'
p756
I2194
sS'presumably'
p757
I604
sS'tone'
p758
I328
sS'appeared'
p759
I1823
sS'had'
p760
I61
sS'height'
p761
I3003
sS'active'
p762
I4213
sS'tons'
p763
I329
sS'initiative'
p764
I3004
sS'paused'
p765
I3984
sS'polynomial'
p766
I1531
sS'springs'
p767
I1824
sS'trust'
p768
I3325
sS'panel'
p769
I2060
sS'speak'
p770
I3937
sS'conference'
p771
I903
sS'ease'
p772
I3642
sS'proceeded'
p773
I1463
sS'beef'
p774
I2126
sS'basis'
p775
I605
sS'union'
p776
I52
sS'remained'
p777
I4006
sS'three'
p778
I4261
sS'tiny'
p779
I606
sS'legend'
p780
I2512
sS'submarine'
p781
I627
sS'beer'
p782
I2128
sS'startled'
p783
I1193
sS'interest'
p784
I607
sS'basic'
p785
I608
sS'expected'
p786
I3327
sS'flexible'
p787
I1532
sS'entered'
p788
I3887
sS'lovely'
p789
I609
sS'warmth'
p790
I2688
sS'duties'
p791
I2689
sS'location'
p792
I1377
sS'dry'
p793
I2954
sS'life'
p794
I1194
sS'families'
p795
I1533
sS'deeper'
p796
I610
sS'intense'
p797
I4724
sS'attacked'
p798
I330
sS'drugs'
p799
I3328
sS'concerning'
p800
I3938
sS'republicans'
p801
I4579
sS'woodruff'
p802
I1825
sS'speeches'
p803
I4383
sS'dave'
p804
I54
sS'substance'
p805
I1145
sS'benefits'
p806
I4396
sS'child'
p807
I1196
sS'catch'
p808
I4581
sS'worked'
p809
I2402
sS'sad'
p810
I3695
sS'neutral'
p811
I2941
sS'colored'
p812
I1669
sS'applied'
p813
I2690
sS'commerce'
p814
I3635
sS'exception'
p815
I1826
sS'has'
p816
I62
sS'ahead'
p817
I1670
sS'publicly'
p818
I2691
sS'gentle'
p819
I2606
sS'castro'
p820
I3636
sS'n'
p821
I904
sS'aim'
p822
I2693
sS'ugly'
p823
I611
sS'near'
p824
I1827
sS'neat'
p825
I1828
sS'teachers'
p826
I3280
sS'aid'
p827
I2694
sS'voice'
p828
I1534
sS'leaves'
p829
I863
sS'launched'
p830
I2696
sS'mistake'
p831
I3939
sS'seven'
p832
I612
sS'matsuo'
p833
I1008
sS'metropolitan'
p834
I1829
sS'played'
p835
I3637
sS'is'
p836
I1494
sS'it'
p837
I1830
sS'expenses'
p838
I3330
sS'jess'
p839
I666
sS'cant'
p840
I613
sS'tissue'
p841
I2093
sS'im'
p842
I1832
sS'fled'
p843
I3534
sS'uncle'
p844
I4592
sS'in'
p845
I1833
sS'dallas'
p846
I4485
sS'march'
p847
I1715
sS'pathology'
p848
I905
sS'shift'
p849
I3037
sS'ie'
p850
I1834
sS'id'
p851
I1835
sS'if'
p852
I1836
sS'grown'
p853
I4266
sS'memorial'
p854
I56
sS'ignored'
p855
I4639
sS'lacking'
p856
I2873
sS'soldier'
p857
I1671
sS'patent'
p858
I1535
sS'suggest'
p859
I3332
sS'make'
p860
I3007
sS'wound'
p861
I2130
sS'miami'
p862
I3572
sS'beside'
p863
I871
sS'helva'
p864
I3290
sS'complex'
p865
I2131
sS'shooting'
p866
I4530
sS'split'
p867
I57
sS'unfortunate'
p868
I3009
sS'plates'
p869
I1536
sS'several'
p870
I2133
sS'couple'
p871
I194
sS'european'
p872
I2403
sS'wheel'
p873
I2103
sS'fairly'
p874
I1197
sS'screw'
p875
I4154
sS'governors'
p876
I4268
sS'social'
p877
I3750
sS'hang'
p878
I331
sS'evil'
p879
I3619
sS'hand'
p880
I332
sS'delight'
p881
I3011
sS'afraid'
p882
I3251
sS'ownership'
p883
I3641
sS'supper'
p884
I58
sS'hans'
p885
I333
sS'insisted'
p886
I3333
sS'opportunity'
p887
I3012
sS'thoughts'
p888
I4269
sS'kid'
p889
I3013
sS'butter'
p890
I3014
sS'vermont'
p891
I334
sS'suitable'
p892
I2956
sS'shortly'
p893
I906
sS'russians'
p894
I3548
sS'programs'
p895
I615
sS'changes'
p896
I4543
sS'possessed'
p897
I907
sS'youre'
p898
I2269
sS'game'
p899
I2874
sS'ocean'
p900
I908
sS'intervals'
p901
I4721
sS'academic'
p902
I59
sS'savings'
p903
I3334
sS'practices'
p904
I1516
sS'greatest'
p905
I2134
sS'qualities'
p906
I4270
sS'mother'
p907
I3335
sS'claims'
p908
I4271
sS'jean'
p909
I909
sS'yours'
p910
I616
sS'left'
p911
I4272
sS'opinions'
p912
I1198
sS'traditions'
p913
I336
sS'proposed'
p914
I910
sS'diameter'
p915
I1489
sS'hearst'
p916
I1509
sS'expanding'
p917
I4737
sS'aside'
p918
I3698
sS'assigned'
p919
I617
sS'grades'
p920
I911
sS'identify'
p921
I1838
sS'thanks'
p922
I337
sS'human'
p923
I3934
sS'facts'
p924
I1839
sS'yes'
p925
I618
sS'yet'
p926
I619
sS'previous'
p927
I2405
sS'thyroid'
p928
I3943
sS'adding'
p929
I1540
sS'burns'
p930
I913
sS'hal'
p931
I60
sS'greenwich'
p932
I900
sS'candidate'
p933
I4275
sS'sciences'
p934
I958
sS'regarded'
p935
I1840
sS'royal'
p936
I620
sS'emphasis'
p937
I2198
sS'wright'
p938
I338
sS'spread'
p939
I1542
sS'advantages'
p940
I384
sS'board'
p941
I2703
sS'innocent'
p942
I2406
sS'prison'
p943
I3644
sS'consideration'
p944
I3826
sS'save'
p945
I621
sS'hat'
p946
I63
sS'humanity'
p947
I2135
sS'gave'
p948
I912
sS'shoulder'
p949
I3018
sS'municipal'
p950
I64
sS'dignity'
p951
I3944
sS'survival'
p952
I65
sS'credit'
p953
I2955
sS'rapidly'
p954
I3765
sS'possible'
p955
I1201
sS'possibly'
p956
I1202
sS'cultural'
p957
I3338
sS'birth'
p958
I1203
sS'destroy'
p959
I3700
sS'judge'
p960
I3339
sS'shadow'
p961
I66
sS'unique'
p962
I1204
sS'dreams'
p963
I3017
sS'apart'
p964
I2136
sS'desire'
p965
I2407
sS'melting'
p966
I914
sS'gift'
p967
I2137
sS'visible'
p968
I2091
sS'bobby'
p969
I3647
sS'50'
p970
I3340
sS'theyre'
p971
I3945
sS'specific'
p972
I2138
sS'offices'
p973
I916
sS'officer'
p974
I3341
sS'night'
p975
I339
sS'hung'
p976
I3343
sS'security'
p977
I1545
sS'leaned'
p978
I4232
sS'attorney'
p979
I67
sS'right'
p980
I3648
sS'dean'
p981
I622
sS'deal'
p982
I623
sS'people'
p983
I1206
sS'staff'
p984
I3245
sS'successfully'
p985
I3344
sS'somehow'
p986
I624
sS'dead'
p987
I3956
sS'born'
p988
I340
sS'clubs'
p989
I2139
sS'election'
p990
I915
sS'escape'
p991
I2140
sS'dear'
p992
I625
sS'pain'
p993
I1841
sS'bore'
p994
I2152
sS'guess'
p995
I2526
sS'asia'
p996
I4211
sS'enemies'
p997
I2410
sS'total'
p998
I2653
sS'humor'
p999
I3946
sS'trace'
p1000
I4335
sS'for'
p1001
I1208
sS'bottom'
p1002
I69
sS'stronger'
p1003
I3958
sS'armed'
p1004
I2141
sS'ear'
p1005
I2944
sS'investigations'
p1006
I1901
sS'mad'
p1007
I4145
sS'comments'
p1008
I1546
sS'creative'
p1009
I3650
sS'everything'
p1010
I3345
sS'fog'
p1011
I1209
sS'shakespeare'
p1012
I626
sS'denied'
p1013
I2705
sS'steps'
p1014
I1205
sS'christmas'
p1015
I2143
sS'participation'
p1016
I342
sS'core'
p1017
I2144
sS'particular'
p1018
I4386
sS'knew'
p1019
I3701
sS'meanings'
p1020
I3019
sS'bold'
p1021
I4279
sS'dropped'
p1022
I3522
sS'marketing'
p1023
I3947
sS'corn'
p1024
I2145
sS'arbitrary'
p1025
I3342
sS'illustration'
p1026
I2706
sS'disappeared'
p1027
I3346
sS'binomial'
p1028
I3948
sS'upward'
p1029
I1744
sS'losing'
p1030
I2412
sS'post'
p1031
I2707
sS'manufacturing'
p1032
I3651
sS'permitted'
p1033
I3347
sS'italian'
p1034
I3262
sS'plug'
p1035
I941
sS'attacks'
p1036
I917
sS'theirs'
p1037
I1547
sS'dollars'
p1038
I1210
sS'citizens'
p1039
I1211
sS'words'
p1040
I4765
sS'o'
p1041
I3652
sS'essential'
p1042
I3501
sS'dinner'
p1043
I918
sS'despair'
p1044
I1212
sS'plus'
p1045
I3349
sS'afternoon'
p1046
I629
sS'horizon'
p1047
I3951
sS'steadily'
p1048
I4588
sS'islands'
p1049
I1844
sS'permission'
p1050
I1980
sS'sept'
p1051
I2146
sS'marshal'
p1052
I3020
sS'automatically'
p1053
I3989
sS'nixon'
p1054
I1213
sS'considerations'
p1055
I3952
sS'raised'
p1056
I2413
sS'faint'
p1057
I3442
sS'managers'
p1058
I631
sS'governments'
p1059
I4295
sS'formerly'
p1060
I1845
sS'mantle'
p1061
I1549
sS'washed'
p1062
I3122
sS'marshall'
p1063
I70
sS'profession'
p1064
I343
sS'bound'
p1065
I2709
sS'intellectual'
p1066
I1846
sS'bath'
p1067
I919
sS'down'
p1068
I632
sS'respectable'
p1069
I379
sS'beings'
p1070
I71
sS'explain'
p1071
I2996
sS'magazines'
p1072
I381
sS'doctrine'
p1073
I4282
sS'balanced'
p1074
I1550
sS'honored'
p1075
I2704
sS'reducing'
p1076
I1214
sS'frightened'
p1077
I1848
sS'mass'
p1078
I2500
sS'parade'
p1079
I4107
sS'communists'
p1080
I633
sS'existed'
p1081
I3353
sS'cleared'
p1082
I3400
sS'crowd'
p1083
I68
sS'support'
p1084
I2416
sS'flying'
p1085
I634
sS'legislation'
p1086
I3954
sS'sovereign'
p1087
I344
sS'payment'
p1088
I821
sS'stuck'
p1089
I920
sS'accordingly'
p1090
I1552
sS'fought'
p1091
I1030
sS'editor'
p1092
I635
sS'fraction'
p1093
I636
sS'obliged'
p1094
I3195
sS'resulted'
p1095
I2419
sS'call'
p1096
I1215
sS'was'
p1097
I2711
sS'war'
p1098
I2712
sS'cloth'
p1099
I3504
sS'telegraph'
p1100
I1149
sS'selection'
p1101
I4488
sS'head'
p1102
I2147
sS'medium'
p1103
I2148
sS'amateur'
p1104
I921
sS'jumped'
p1105
I3715
sS'form'
p1106
I1849
sS'manufacturers'
p1107
I1217
sS'something'
p1108
I4459
sS'attempted'
p1109
I959
sS'becoming'
p1110
I2713
sS'differences'
p1111
I4591
sS'landing'
p1112
I637
sS'ford'
p1113
I1850
sS'mysterious'
p1114
I2822
sS'heat'
p1115
I2149
sS'magnitude'
p1116
I4141
sS'hear'
p1117
I2150
sS'claim'
p1118
I4312
sS'surrender'
p1119
I3022
sS'nodded'
p1120
I2151
sS'fort'
p1121
I1851
sS'absent'
p1122
I2716
sS'protestant'
p1123
I3023
sS'urgent'
p1124
I4110
sS'assessment'
p1125
I3285
sS'inside'
p1126
I2420
sS'milligrams'
p1127
I3025
sS'attached'
p1128
I4284
sS'maximum'
p1129
I345
sS'devices'
p1130
I2421
sS'until'
p1131
I3599
sS'statements'
p1132
I3654
sS'crystal'
p1133
I3957
sS'how'
p1134
I3608
sS'mighty'
p1135
I2565
sS'panels'
p1136
I1219
sS'dare'
p1137
I2486
sS'propaganda'
p1138
I3026
sS'phil'
p1139
I112
sS'liberal'
p1140
I1220
sS'sticks'
p1141
I1852
sS'classic'
p1142
I1853
sS'steady'
p1143
I2422
sS'abstract'
p1144
I3959
sS'twenty'
p1145
I1971
sS'revealed'
p1146
I2443
sS'evidence'
p1147
I1553
sS'harmony'
p1148
I3640
sS'exist'
p1149
I1221
sS'promised'
p1150
I2718
sS'prayer'
p1151
I347
sS'ship'
p1152
I1854
sS'mold'
p1153
I1554
sS'dealer'
p1154
I1223
sS'regime'
p1155
I922
sS'write'
p1156
I3985
sS'dying'
p1157
I3960
sS'no'
p1158
I2153
sS'whereas'
p1159
I3357
sS'when'
p1160
I983
sS'actor'
p1161
I1224
sS'reality'
p1162
I3961
sS'tim'
p1163
I4597
sS'build'
p1164
I4408
sS'setting'
p1165
I923
sS'republic'
p1166
I1225
sS'holding'
p1167
I3962
sS'papers'
p1168
I924
sS'test'
p1169
I348
sS'tie'
p1170
I4598
sS'smell'
p1171
I3661
sS'roll'
p1172
I73
sS'picture'
p1173
I925
sS'twentyfive'
p1174
I1226
sS'savage'
p1175
I3027
sS'models'
p1176
I2423
sS'why'
p1177
I1096
sS'football'
p1178
I926
sS'diet'
p1179
I1856
sS'journey'
p1180
I638
sS'wounded'
p1181
I3854
sS'variable'
p1182
I74
sS'aware'
p1183
I1859
sS'weekend'
p1184
I639
sS'died'
p1185
I1860
sS'billion'
p1186
I1861
sS'younger'
p1187
I4599
sS'reorganization'
p1188
I1227
sS'happening'
p1189
I640
sS'bullet'
p1190
I2155
sS'excuse'
p1191
I2823
sS'assume'
p1192
I1654
sS'normally'
p1193
I3244
sS'changed'
p1194
I4542
sS'together'
p1195
I1557
sS'jacket'
p1196
I641
sS'rough'
p1197
I3856
sS'reception'
p1198
I1558
sS'remarked'
p1199
I927
sS'push'
p1200
I3663
sS'serious'
p1201
I4601
sS'backward'
p1202
I2157
sS'profits'
p1203
I4047
sS'songs'
p1204
I349
sS'neighbors'
p1205
I4602
sS'shop'
p1206
I3083
sS'childs'
p1207
I75
sS'managed'
p1208
I3029
sS'doctor'
p1209
I4357
sS'corps'
p1210
I76
sS'impression'
p1211
I4158
sS'dance'
p1212
I3963
sS'unhappy'
p1213
I3173
sS'walking'
p1214
I3030
sS'leads'
p1215
I3360
sS'roy'
p1216
I928
sS'manager'
p1217
I3031
sS'mile'
p1218
I4291
sS'ice'
p1219
I2142
sS'grateful'
p1220
I2721
sS'skin'
p1221
I1862
sS'battle'
p1222
I351
sS'chair'
p1223
I77
sS'hole'
p1224
I3604
sS'row'
p1225
I929
sS'devoted'
p1226
I3965
sS'ballet'
p1227
I78
sS'mounted'
p1228
I2723
sS'depend'
p1229
I3032
sS'universe'
p1230
I3575
sS'religion'
p1231
I3803
sS'promote'
p1232
I3433
sS'flash'
p1233
I1560
sS'father'
p1234
I642
sS'editors'
p1235
I1863
sS'uneasy'
p1236
I2803
sS'passage'
p1237
I930
sS'environment'
p1238
I3361
sS'0'
p1239
I643
sS'charge'
p1240
I3362
sS'asking'
p1241
I341
sS'rhythm'
p1242
I2724
sS'marks'
p1243
I1865
sS'terror'
p1244
I3966
sS'dartmouth'
p1245
I352
sS'sovereignty'
p1246
I644
sS'must'
p1247
I4544
sS'ride'
p1248
I4133
sS'eliminate'
p1249
I4440
sS'division'
p1250
I2725
sS'supported'
p1251
I2726
sS'advantage'
p1252
I2161
sS'ecumenical'
p1253
I3336
sS'frequencies'
p1254
I931
sS'choice'
p1255
I79
sS'automobiles'
p1256
I353
sS'congregation'
p1257
I932
sS'scholarship'
p1258
I3725
sS'advised'
p1259
I645
sS'cook'
p1260
I3364
sS'ma'
p1261
I1666
sS'trouble'
p1262
I3968
sS'exact'
p1263
I80
sS'minute'
p1264
I81
sS'socialist'
p1265
I2864
sS'henrietta'
p1266
I1230
sS'clouds'
p1267
I933
sS'impressive'
p1268
I934
sS'level'
p1269
I935
sS'did'
p1270
I4296
sS'turns'
p1271
I354
sS'rights'
p1272
I1804
sS'proposals'
p1273
I646
sS'gun'
p1274
I355
sS'standards'
p1275
I937
sS'leave'
p1276
I2426
sS'p'
p1277
I1562
sS'settle'
p1278
I2427
sS'theological'
p1279
I2411
sS'team'
p1280
I1231
sS'quick'
p1281
I4605
sS'movie'
p1282
I3783
sS'guy'
p1283
I356
sS'round'
p1284
I647
sS'added'
p1285
I3970
sS'democrats'
p1286
I2329
sS'prevent'
p1287
I1232
sS'spiritual'
p1288
I2428
sS'unexpected'
p1289
I648
sS'hell'
p1290
I2833
sS'occurrence'
p1291
I2429
sS'findings'
p1292
I3664
sS'attitude'
p1293
I3762
sS'trend'
p1294
I1028
sS'dealing'
p1295
I649
sS'discover'
p1296
I3974
sS'literature'
p1297
I3494
sS'sign'
p1298
I2430
sS'cost'
p1299
I357
sS'dried'
p1300
I3366
sS'patient'
p1301
I3197
sS'helpless'
p1302
I2728
sS'port'
p1303
I938
sS'substitute'
p1304
I2164
sS'drinks'
p1305
I4606
sS'troops'
p1306
I1868
sS'moments'
p1307
I1458
sS'comparable'
p1308
I2920
sS'assistance'
p1309
I3976
sS'papa'
p1310
I4448
sS'shares'
p1311
I358
sS'rome'
p1312
I1837
sS'current'
p1313
I1233
sS'remembered'
p1314
I4442
sS'hungry'
p1315
I3401
sS'suspect'
p1316
I651
sS'goes'
p1317
I939
sS'shared'
p1318
I359
sS'falling'
p1319
I3665
sS'appeal'
p1320
I2731
sS'filled'
p1321
I653
sS'temperatures'
p1322
I3605
sS'supporting'
p1323
I1564
sS'processing'
p1324
I1721
sS'transportation'
p1325
I1866
sS'funeral'
p1326
I3666
sS'v'
p1327
I3448
sS'french'
p1328
I4300
sS'understanding'
p1329
I2432
sS'water'
p1330
I4608
sS'evident'
p1331
I3429
sS'slow'
p1332
I3707
sS'tangent'
p1333
I4090
sS'groups'
p1334
I2167
sS'address'
p1335
I84
sS'alone'
p1336
I3668
sS'along'
p1337
I3669
sS'stem'
p1338
I2880
sS'teacher'
p1339
I360
sS'change'
p1340
I1566
sS'wait'
p1341
I4301
sS'box'
p1342
I654
sS'sending'
p1343
I361
sS'breathing'
p1344
I3514
sS'thirty'
p1345
I2168
sS'brilliant'
p1346
I2434
sS'my'
p1347
I2095
sS'teaching'
p1348
I4206
sS'studied'
p1349
I1234
sS'grinned'
p1350
I656
sS'petitioner'
p1351
I3977
sS'commonly'
p1352
I1236
sS'proud'
p1353
I2169
sS'trial'
p1354
I1567
sS'accomplished'
p1355
I85
sS'franklin'
p1356
I362
sS'suggestion'
p1357
I3038
sS'usually'
p1358
I2732
sS'bob'
p1359
I657
sS'studies'
p1360
I2870
sS'engineer'
p1361
I3386
sS'pause'
p1362
I3857
sS'tasks'
p1363
I2435
sS'love'
p1364
I1237
sS'extra'
p1365
I364
sS'merely'
p1366
I658
sS'prefer'
p1367
I3670
sS'logical'
p1368
I2436
sS'iron'
p1369
I3924
sS'divorce'
p1370
I4398
sS'rarely'
p1371
I1569
sS'parking'
p1372
I4640
sS'crisis'
p1373
I940
sS'traders'
p1374
I3527
sS'hotels'
p1375
I3040
sS'sympathetic'
p1376
I1867
sS'voices'
p1377
I4333
sS'indicated'
p1378
I289
sS'working'
p1379
I86
sS'prove'
p1380
I2733
sS'sake'
p1381
I659
sS'positive'
p1382
I1238
sS'angry'
p1383
I2437
sS'visit'
p1384
I660
sS'tears'
p1385
I3708
sS'abroad'
p1386
I1722
sS'live'
p1387
I1570
sS'bases'
p1388
I2915
sS'andy'
p1389
I780
sS'opposed'
p1390
I87
sS'wondering'
p1391
I1240
sS'memory'
p1392
I4610
sS'negroes'
p1393
I3371
sS'scope'
p1394
I2438
sS'associated'
p1395
I4347
sS'angels'
p1396
I3980
sS'theoretical'
p1397
I2439
sS'today'
p1398
I792
sS'chapter'
p1399
I3348
sS'entrance'
p1400
I1571
sS'sharing'
p1401
I4306
sS'continue'
p1402
I2562
sS'conductor'
p1403
I4611
sS'sessions'
p1404
I4612
sS'afford'
p1405
I1241
sS'india'
p1406
I3909
sS'acceptable'
p1407
I4307
sS'apparent'
p1408
I1242
sS'envelope'
p1409
I3982
sS'bdikkat'
p1410
I3042
sS'casey'
p1411
I942
sS'visual'
p1412
I1243
sS'rigid'
p1413
I1869
sS'virtue'
p1414
I2441
sS'hesitated'
p1415
I2734
sS'employed'
p1416
I943
sS'corresponding'
p1417
I2924
sS'cases'
p1418
I944
sS'effort'
p1419
I1870
sS'piano'
p1420
I3553
sS'behalf'
p1421
I1244
sS'fly'
p1422
I4309
sS'organizations'
p1423
I2735
sS'anything'
p1424
I1386
sS'sphere'
p1425
I3133
sS'car'
p1426
I2736
sS'originally'
p1427
I4624
sS'cap'
p1428
I2737
sS'soul'
p1429
I4310
sS'believes'
p1430
I1245
sS'districts'
p1431
I2170
sS'values'
p1432
I1246
sS'hope'
p1433
I1444
sS'sky'
p1434
I4778
sS'believed'
p1435
I1247
sS'making'
p1436
I661
sS'metal'
p1437
I4569
sS'dispute'
p1438
I3711
sS'laughter'
p1439
I2171
sS'newspapers'
p1440
I3950
sS'imitation'
p1441
I3983
sS'nearest'
p1442
I662
sS'dedicated'
p1443
I1572
sS'months'
p1444
I2708
sS'figure'
p1445
I945
sS'1962'
p1446
I3310
sS'recalled'
p1447
I2862
sS'december'
p1448
I1573
sS'arise'
p1449
I2255
sS'confused'
p1450
I3044
sS'agent'
p1451
I4313
sS'sample'
p1452
I663
sS'heard'
p1453
I2741
sS'critic'
p1454
I946
sS'chin'
p1455
I365
sS'yard'
p1456
I287
sS'council'
p1457
I3045
sS'allowed'
p1458
I2442
sS'reminded'
p1459
I4651
sS'hydrogen'
p1460
I2173
sS'occur'
p1461
I366
sS'pink'
p1462
I1873
sS'glanced'
p1463
I3291
sS'productive'
p1464
I1575
sS'requirements'
p1465
I2174
sS'winter'
p1466
I1248
sS'dress'
p1467
I3757
sS'discussion'
p1468
I367
sS'means'
p1469
I1576
sS'mike'
p1470
I3560
sS'magazine'
p1471
I628
sS'chemical'
p1472
I1874
sS'till'
p1473
I1875
sS'sunday'
p1474
I1876
sS'vital'
p1475
I947
sS'fourth'
p1476
I948
sS'assistant'
p1477
I2470
sS'optimal'
p1478
I504
sS'youth'
p1479
I4403
sS'firmly'
p1480
I2827
sS'economy'
p1481
I368
sS'product'
p1482
I369
sS'samuel'
p1483
I4014
sS'cocktail'
p1484
I4614
sS'information'
p1485
I1326
sS'may'
p1486
I3046
sS'sacrifice'
p1487
I4069
sS'fed'
p1488
I2308
sS'spot'
p1489
I1249
sS'applications'
p1490
I1250
sS'membership'
p1491
I664
sS'produce'
p1492
I370
sS'designed'
p1493
I1878
sS'congressman'
p1494
I2882
sS'date'
p1495
I1251
sS'such'
p1496
I3676
sS'destructive'
p1497
I3048
sS'data'
p1498
I1252
sS'eighth'
p1499
I949
sS'man'
p1500
I3049
sS'stress'
p1501
I3677
sS'natural'
p1502
I2444
sS'remember'
p1503
I1578
sS'succeeded'
p1504
I950
sS'conscious'
p1505
I90
sS'whenever'
p1506
I3988
sS'maybe'
p1507
I1881
sS'explicit'
p1508
I1579
sS'st'
p1509
I2445
sS'tale'
p1510
I3052
sS'switch'
p1511
I4316
sS'jail'
p1512
I1882
sS'block'
p1513
I4112
sS'african'
p1514
I4317
sS'tall'
p1515
I3053
sS'pulled'
p1516
I91
sS'gesture'
p1517
I1883
sS'typical'
p1518
I3990
sS'refund'
p1519
I2176
sS'exclusive'
p1520
I4617
sS'serving'
p1521
I371
sS'shoes'
p1522
I665
sS'furnished'
p1523
I3374
sS'indeed'
p1524
I1581
sS'pointed'
p1525
I1884
sS'displayed'
p1526
I2742
sS'primitive'
p1527
I3375
sS'years'
p1528
I93
sS'arm'
p1529
I4703
sS'ended'
p1530
I372
sS'experiments'
p1531
I2447
sS'cuts'
p1532
I1885
sS'argued'
p1533
I4318
sS'dilemma'
p1534
I1548
sS'cold'
p1535
I1582
sS'still'
p1536
I373
sS'birds'
p1537
I1583
sS'tendency'
p1538
I2448
sS'cited'
p1539
I3908
sS'police'
p1540
I667
sS'thank'
p1541
I1768
sS'beliefs'
p1542
I2808
sS'interesting'
p1543
I668
sS'jim'
p1544
I94
sS'troubles'
p1545
I95
sS'hot'
p1546
I3609
sS'forms'
p1547
I2332
sS'platform'
p1548
I952
sS'window'
p1549
I1584
sS'according'
p1550
I1915
sS'suspicion'
p1551
I2450
sS'farmer'
p1552
I953
sS'policy'
p1553
I669
sS'ours'
p1554
I1772
sS'troubled'
p1555
I96
sS'decades'
p1556
I1254
sS'prisoners'
p1557
I3953
sS'texas'
p1558
I1886
sS'happened'
p1559
I3377
sS'correspondence'
p1560
I374
sS'within'
p1561
I2883
sS'finance'
p1562
I1887
sS'thereby'
p1563
I2451
sS'civilian'
p1564
I97
sS'killer'
p1565
I1888
sS'nation'
p1566
I2452
sS'1955'
p1567
I2744
sS'lunch'
p1568
I670
sS'1957'
p1569
I2746
sS'qualified'
p1570
I954
sS'course'
p1571
I3679
sS'1950'
p1572
I2748
sS'1953'
p1573
I2749
sS'half'
p1574
I1585
sS'not'
p1575
I375
sS'feature'
p1576
I2368
sS'nov'
p1577
I376
sS'now'
p1578
I377
sS'1959'
p1579
I2751
sS'hall'
p1580
I1586
sS'nor'
p1581
I378
sS'wont'
p1582
I1587
sS'wagon'
p1583
I3380
sS'term'
p1584
I1120
sS'shouted'
p1585
I2453
sS'name'
p1586
I1122
sS'lies'
p1587
I4281
sS'opera'
p1588
I2178
sS'january'
p1589
I2753
sS'drop'
p1590
I380
sS'establishing'
p1591
I2454
sS'possibilities'
p1592
I2179
sS'realistic'
p1593
I4620
sS'rock'
p1594
I3055
sS'entirely'
p1595
I1588
sS'quarter'
p1596
I98
sS'concerts'
p1597
I1589
sS'realism'
p1598
I2180
sS'em'
p1599
I1590
sS'square'
p1600
I2455
sS'fired'
p1601
I2817
sS'scheme'
p1602
I2841
sS'eg'
p1603
I1591
sS'availability'
p1604
I4572
sS'yeah'
p1605
I2353
sS'hurried'
p1606
I2754
sS'sponsor'
p1607
I99
sS'entering'
p1608
I100
sS'year'
p1609
I382
sS'et'
p1610
I1592
sS'happen'
p1611
I2755
sS'worried'
p1612
I2471
sS'plans'
p1613
I3759
sS'canada'
p1614
I3056
sS'living'
p1615
I4325
sS'shown'
p1616
I1593
sS'accomplish'
p1617
I3996
sS'jackson'
p1618
I3057
sS'assessors'
p1619
I101
sS'space'
p1620
I1595
sS'profit'
p1621
I2183
sS'furthermore'
p1622
I383
sS'interference'
p1623
I1890
sS'factory'
p1624
I4623
sS'looking'
p1625
I2359
sS'attracted'
p1626
I2184
sS'seriously'
p1627
I102
sS'investigation'
p1628
I2457
sS'rational'
p1629
I2758
sS'churches'
p1630
I1486
sS'protected'
p1631
I4332
sS'receiving'
p1632
I1596
sS'correct'
p1633
I1791
sS'shows'
p1634
I1597
sS'inevitably'
p1635
I1598
sS'earlier'
p1636
I2658
sS'theory'
p1637
I2185
sS'commission'
p1638
I3884
sS'cars'
p1639
I2759
sS'million'
p1640
I1257
sS'seventh'
p1641
I3683
sS'possibility'
p1642
I1258
sS'quite'
p1643
I3684
sS'magnificent'
p1644
I4438
sS'complicated'
p1645
I571
sS'carl'
p1646
I2760
sS'poems'
p1647
I2458
sS'marine'
p1648
I3997
sS'inevitable'
p1649
I1599
sS'card'
p1650
I2761
sS'care'
p1651
I2762
sS'longrange'
p1652
I3685
sS'advance'
p1653
I3059
sS'training'
p1654
I3686
sS'language'
p1655
I1892
sS'transition'
p1656
I385
sS'modest'
p1657
I20
sS'british'
p1658
I2763
sS'honest'
p1659
I3998
sS'motion'
p1660
I4626
sS'turn'
p1661
I956
sS'place'
p1662
I3382
sS'aboard'
p1663
I104
sS'swing'
p1664
I3383
sS'promotion'
p1665
I1600
sS'view'
p1666
I4364
sS'think'
p1667
I3061
sS'frequent'
p1668
I672
sS'first'
p1669
I673
sS'emotion'
p1670
I105
sS'constantly'
p1671
I2417
sS'saving'
p1672
I106
sS'striking'
p1673
I1601
sS'spoken'
p1674
I107
sS'variables'
p1675
I4000
sS'rachel'
p1676
I674
sS'symbolic'
p1677
I4627
sS'one'
p1678
I108
sS'freely'
p1679
I2044
sS'williams'
p1680
I3692
sS'americans'
p1681
I4327
sS'specifically'
p1682
I1389
sS'directly'
p1683
I2765
sS'spanish'
p1684
I3688
sS'vote'
p1685
I1259
sS'impossible'
p1686
I1602
sS'ring'
p1687
I387
sS'fight'
p1688
I1551
sS'open'
p1689
I2459
sS'tomorrow'
p1690
I388
sS'publicity'
p1691
I3479
sS'size'
p1692
I1603
sS'sheep'
p1693
I1604
sS'city'
p1694
I2460
sS'little'
p1695
I3065
sS'necessarily'
p1696
I3388
sS'sheet'
p1697
I1605
sS'silent'
p1698
I1606
sS'district'
p1699
I3389
sS'virgin'
p1700
I3354
sS'caught'
p1701
I2379
sS'slept'
p1702
I4329
sS'europe'
p1703
I3785
sS'plastic'
p1704
I3615
sS'anyone'
p1705
I3066
sS'indicate'
p1706
I1261
sS'returns'
p1707
I1169
sS'2'
p1708
I1262
sS'tragic'
p1709
I2769
sS'alfred'
p1710
I1895
sS'convention'
p1711
I2188
sS'white'
p1712
I4629
sS'structures'
p1713
I3691
sS'national'
p1714
I2042
sS'speaking'
p1715
I675
sS'authorized'
p1716
I2418
sS'eyes'
p1717
I3067
sS'way'
p1718
I2710
sS'mostly'
p1719
I1608
sS'cope'
p1720
I3866
sS'pittsburgh'
p1721
I2385
sS'season'
p1722
I4630
sS'moscow'
p1723
I3068
sS'continuous'
p1724
I1896
sS'accurately'
p1725
I1897
sS'released'
p1726
I3392
sS'gin'
p1727
I3355
sS'probably'
p1728
I4087
sS'occurring'
p1729
I3646
sS'copy'
p1730
I1181
sS'representing'
p1731
I1263
sS'message'
p1732
I2766
sS'quantity'
p1733
I4635
sS'population'
p1734
I3393
sS'11'
p1735
I3069
sS'10'
p1736
I3070
sS'television'
p1737
I2770
sS'12'
p1738
I3072
sS'15'
p1739
I3073
sS'effective'
p1740
I1156
sS'17'
p1741
I3075
sS'16'
p1742
I3076
sS'19'
p1743
I3077
sS'18'
p1744
I3078
sS'require'
p1745
I2190
sS'crowded'
p1746
I3135
sS'diplomatic'
p1747
I2191
sS'transferred'
p1748
I389
sS'future'
p1749
I1264
sS'were'
p1750
I1898
sS'cards'
p1751
I957
sS'college'
p1752
I3402
sS'happy'
p1753
I1216
sS'russia'
p1754
I2461
sS'tractor'
p1755
I1899
sS'published'
p1756
I4384
sS'prospect'
p1757
I1265
sS'mountain'
p1758
I4406
sS'gathering'
p1759
I3079
sS'san'
p1760
I3693
sS'sam'
p1761
I3694
sS'mountains'
p1762
I2298
sS'ann'
p1763
I2195
sS'premier'
p1764
I4007
sS'turned'
p1765
I109
sS'argument'
p1766
I2462
sS'headquarters'
p1767
I3611
sS'threw'
p1768
I4262
sS'say'
p1769
I3696
sS'conspiracy'
p1770
I1900
sS'rent'
p1771
I3397
sS'stanley'
p1772
I4641
sS'anger'
p1773
I1609
sS'breakfast'
p1774
I1610
sS'saw'
p1775
I3697
sS'any'
p1776
I2196
sS'sat'
p1777
I3010
sS'opened'
p1778
I1594
sS'conversion'
p1779
I4632
sS'offering'
p1780
I4283
sS'able'
p1781
I4155
sS'regular'
p1782
I2988
sS'efficient'
p1783
I3080
sS'veteran'
p1784
I1611
sS'offer'
p1785
I3657
sS'ideas'
p1786
I3398
sS'note'
p1787
I3699
sS'equipment'
p1788
I390
sS'ideal'
p1789
I1199
sS'jefferson'
p1790
I1266
sS'penny'
p1791
I4196
sS'take'
p1792
I1267
sS'forming'
p1793
I3658
sS'objective'
p1794
I1612
sS'performance'
p1795
I676
sS'concern'
p1796
I1619
sS'formulas'
p1797
I678
sS'begin'
p1798
I4008
sS'sure'
p1799
I1207
sS'altered'
p1800
I1268
sS'shade'
p1801
I3454
sS'theatre'
p1802
I1842
sS'opposite'
p1803
I110
sS'track'
p1804
I1843
sS'price'
p1805
I2771
sS'sherman'
p1806
I2199
sS'paid'
p1807
I1902
sS'falls'
p1808
I2200
sS'visitors'
p1809
I2201
sS'wire'
p1810
I3861
sS'printed'
p1811
I111
sS'sheets'
p1812
I4280
sS'pair'
p1813
I1847
sS'knee'
p1814
I3703
sS'america'
p1815
I2415
sS'pages'
p1816
I3704
sS'peaceful'
p1817
I4649
sS'forever'
p1818
I2772
sS'democratic'
p1819
I3612
sS'especially'
p1820
I4337
sS'surprising'
p1821
I4338
sS'failure'
p1822
I3021
sS'considered'
p1823
I2202
sS'gyro'
p1824
I1903
sS'average'
p1825
I2463
sS'later'
p1826
I960
sS'implications'
p1827
I392
sS'drive'
p1828
I2464
sS'mrs'
p1829
I393
sS'wore'
p1830
I3905
sS'slaves'
p1831
I4009
sS'pattern'
p1832
I3247
sS'professional'
p1833
I4010
sS'senior'
p1834
I4634
sS'salt'
p1835
I3706
sS'review'
p1836
I4644
sS'laws'
p1837
I2465
sS'detective'
p1838
I3024
sS'madison'
p1839
I1269
sS'shot'
p1840
I3084
sS'surplus'
p1841
I1270
sS'show'
p1842
I3085
sS'german'
p1843
I2773
sS'atom'
p1844
I3808
sS'cheap'
p1845
I1228
sS'contemporary'
p1846
I1904
sS'merit'
p1847
I2466
sS'fifty'
p1848
I2774
sS'discovered'
p1849
I394
sS'hopes'
p1850
I4447
sS'bright'
p1851
I2467
sS'drawings'
p1852
I1983
sS'corner'
p1853
I4298
sS'california'
p1854
I4326
sS'imagined'
p1855
I113
sS'fifth'
p1856
I2775
sS'ground'
p1857
I83
sS'aint'
p1858
I4011
sS'waited'
p1859
I4226
sS'cabin'
p1860
I3238
sS'ratio'
p1861
I1613
sS'favorite'
p1862
I3737
sS'gulf'
p1863
I961
sS'title'
p1864
I4012
sS'true'
p1865
I2715
sS'stained'
p1866
I2776
sS'proportion'
p1867
I1614
sS'husband'
p1868
I1617
sS'junior'
p1869
I1905
sS'desired'
p1870
I2307
sS'only'
p1871
I2777
sS'skywave'
p1872
I1239
sS'black'
p1873
I1906
sS'treasury'
p1874
I681
sS'thompson'
p1875
I4013
sS'enthusiasm'
p1876
I682
sS'watching'
p1877
I3554
sS'awareness'
p1878
I683
sS'carolina'
p1879
I1273
sS'lighted'
p1880
I4638
sS'c'
p1881
I4709
sS'occupied'
p1882
I4334
sS'get'
p1883
I684
sS'contracts'
p1884
I4340
sS'zen'
p1885
I1500
sS'jazz'
p1886
I963
sS'truly'
p1887
I2778
sS'cannot'
p1888
I2779
sS'nearly'
p1889
I3087
sS'progress'
p1890
I4497
sS'trade'
p1891
I3761
sS'gen'
p1892
I685
sS'secondary'
p1893
I3088
sS'prime'
p1894
I3712
sS'reveal'
p1895
I1255
sS'regarding'
p1896
I2204
sS'girl'
p1897
I4323
sS'radar'
p1898
I3139
sS'leather'
p1899
I4015
sS'seldom'
p1900
I1616
sS'thermal'
p1901
I2780
sS'yield'
p1902
I4341
sS'summary'
p1903
I1907
sS'naked'
p1904
I3681
sS'network'
p1905
I3920
sS'miles'
p1906
I686
sS'bombs'
p1907
I1274
sS'where'
p1908
I3714
sS'vision'
p1909
I114
sS'reveals'
p1910
I2205
sS'declared'
p1911
I687
sS'concert'
p1912
I1618
sS'often'
p1913
I4437
sS'burst'
p1914
I396
sS'committed'
p1915
I4061
sS'eighteenth'
p1916
I1908
sS'seat'
p1917
I688
sS'relative'
p1918
I4331
sS'elected'
p1919
I2781
sS'namely'
p1920
I4016
sS'asleep'
p1921
I2782
sS'japan'
p1922
I2660
sS'impressions'
p1923
I115
sS'calendar'
p1924
I1909
sS'connected'
p1925
I4156
sS'wonder'
p1926
I689
sS'surfaces'
p1927
I965
sS'appear'
p1928
I2729
sS'william'
p1929
I4118
sS'brave'
p1930
I3972
sS'voluntary'
p1931
I966
sS'served'
p1932
I3105
sS'federal'
p1933
I3404
sS'subsequent'
p1934
I3405
sS'senate'
p1935
I2563
sS'definite'
p1936
I1271
sS'representatives'
p1937
I679
sS'materials'
p1938
I3015
sS'weapons'
p1939
I2206
sS'enough'
p1940
I690
sS'un'
p1941
I2573
sS'bureau'
p1942
I3716
sS'whats'
p1943
I3991
sS'between'
p1944
I2783
sS'evidently'
p1945
I3673
sS'justified'
p1946
I1620
sS'reading'
p1947
I1911
sS'across'
p1948
I691
sS'arrival'
p1949
I2338
sS'gives'
p1950
I3391
sS'notice'
p1951
I4018
sS'jobs'
p1952
I3717
sS'august'
p1953
I692
sS'useful'
p1954
I4303
sS'screen'
p1955
I2472
sS'style'
p1956
I3455
sS'jr'
p1957
I1912
sS'killing'
p1958
I1913
sS'blame'
p1959
I2784
sS'clayton'
p1960
I3089
sS'spare'
p1961
I3718
sS'emotional'
p1962
I4645
sS'whispered'
p1963
I4343
sS'article'
p1964
I1621
sS'cities'
p1965
I3721
sS'come'
p1966
I4646
sS'21'
p1967
I3146
sS'concentrated'
p1968
I116
sS'reaction'
p1969
I4647
sS'dates'
p1970
I1914
sS'stages'
p1971
I1622
sS'signed'
p1972
I4193
sS'successes'
p1973
I4621
sS'many'
p1974
I2474
sS'region'
p1975
I2207
sS'quiet'
p1976
I967
sS'contract'
p1977
I968
sS'called'
p1978
I4725
sS'somewhere'
p1979
I1502
sS'tour'
p1980
I693
sS'probable'
p1981
I4086
sS'purely'
p1982
I4758
sS'senator'
p1983
I2208
sS'wheels'
p1984
I4019
sS'expression'
p1985
I1275
sS'comes'
p1986
I1623
sS'nearby'
p1987
I4020
sS'duty'
p1988
I3407
sS'among'
p1989
I694
sS'key'
p1990
I4559
sS'cancer'
p1991
I1916
sS'color'
p1992
I2209
sS'28'
p1993
I3149
sS'pot'
p1994
I3408
sS'roman'
p1995
I3485
sS'colony'
p1996
I3409
sS'period'
p1997
I969
sS'insist'
p1998
I970
sS'sampling'
p1999
I3728
sS'60'
p2000
I1284
sS'maintained'
p2001
I4344
sS'grants'
p2002
I4345
sS'65'
p2003
I3411
sS'learning'
p2004
I4021
sS'ordered'
p2005
I482
sS'writing'
p2006
I4550
sS'boat'
p2007
I3720
sS'moore'
p2008
I2717
sS'considering'
p2009
I695
sS'destroyed'
p2010
I4551
sS'arts'
p2011
I1917
sS'capable'
p2012
I696
sS'stretch'
p2013
I3722
sS'west'
p2014
I118
sS'informed'
p2015
I2786
sS'vacation'
p2016
I1277
sS'mark'
p2017
I4349
sS'breath'
p2018
I1278
sS'workshop'
p2019
I3090
sS'combined'
p2020
I1279
sS'mars'
p2021
I1430
sS'women'
p2022
I4740
sS'hardly'
p2023
I2210
sS'mary'
p2024
I4350
sS'500'
p2025
I3412
sS'wants'
p2026
I119
sS'direction'
p2027
I971
sS'enable'
p2028
I2475
sS'shopping'
p2029
I4351
sS'indirect'
p2030
I3356
sS'brush'
p2031
I4790
sS'going'
p2032
I3709
sS'thousand'
p2033
I1280
sS'formed'
p2034
I120
sS'resistance'
p2035
I3513
sS'dangerous'
p2036
I4526
sS'observers'
p2037
I1625
sS'offers'
p2038
I3376
sS'dramatic'
p2039
I697
sS'wake'
p2040
I698
sS'minister'
p2041
I3414
sS'declaration'
p2042
I699
sS'suspected'
p2043
I870
sS'careful'
p2044
I3415
sS'spirit'
p2045
I972
sS'those'
p2046
I1919
sS'pilot'
p2047
I973
sS'case'
p2048
I974
sS'hughes'
p2049
I2212
sS'developing'
p2050
I1627
sS'these'
p2051
I2788
sS'conception'
p2052
I3492
sS'mount'
p2053
I3417
sS'cash'
p2054
I975
sS'cast'
p2055
I976
sS'warning'
p2056
I2764
sS'overcome'
p2057
I4230
sS'editorial'
p2058
I1628
sS'promising'
p2059
I701
sS'newspaper'
p2060
I726
sS'situation'
p2061
I123
sS'eugene'
p2062
I3292
sS'taking'
p2063
I3250
sS'ive'
p2064
I2477
sS'conferences'
p2065
I3092
sS'then'
p2066
I4352
sS'determination'
p2067
I4098
sS'soil'
p2068
I1629
sS'engaged'
p2069
I728
sS'them'
p2070
I1503
sS'sleeping'
p2071
I702
sS'strain'
p2072
I703
sS'sudden'
p2073
I704
sS'minds'
p2074
I4174
sS'heels'
p2075
I1630
sS'return'
p2076
I4682
sS'protein'
p2077
I705
sS'property'
p2078
I2695
sS'technology'
p2079
I124
sS'worry'
p2080
I4023
sS'movements'
p2081
I4354
sS'expenditures'
p2082
I2478
sS'missiles'
p2083
I2479
sS'develop'
p2084
I397
sS'handled'
p2085
I3369
sS'author'
p2086
I977
sS'artists'
p2087
I4188
sS'pay'
p2088
I4358
sS'granted'
p2089
I1327
sS'bowl'
p2090
I501
sS's'
p2091
I117
sS'same'
p2092
I1921
sS'trip'
p2093
I3418
sS'gentlemen'
p2094
I4024
sS'poetic'
p2095
I4025
sS'speech'
p2096
I3094
sS'grain'
p2097
I4771
sS'stepped'
p2098
I1964
sS'physical'
p2099
I1555
sS'events'
p2100
I2214
sS'tried'
p2101
I4057
sS'status'
p2102
I978
sS'noble'
p2103
I2790
sS'extended'
p2104
I706
sS'centuries'
p2105
I4026
sS'faculty'
p2106
I1956
sS'enjoyment'
p2107
I4027
sS'foam'
p2108
I398
sS'driver'
p2109
I3769
sS'director'
p2110
I979
sS'persons'
p2111
I3419
sS'running'
p2112
I4359
sS'edges'
p2113
I125
sS'widespread'
p2114
I4547
sS'delicate'
p2115
I980
sS'changing'
p2116
I2215
sS'anticipated'
p2117
I2834
sS'totally'
p2118
I1922
sS'tradition'
p2119
I1633
sS'complained'
p2120
I2791
sS'approaching'
p2121
I3781
sS'rain'
p2122
I4557
sS'theater'
p2123
I1634
sS'etc'
p2124
I3863
sS'snow'
p2125
I3309
sS'largely'
p2126
I3096
sS'pennsylvania'
p2127
I3420
sS'ranch'
p2128
I3421
sS'constitutional'
p2129
I2792
sS'roughly'
p2130
I3097
sS'know'
p2131
I4781
sS'severe'
p2132
I2793
sS'without'
p2133
I981
sS'relief'
p2134
I982
sS'bottle'
p2135
I4360
sS'communications'
p2136
I3802
sS'model'
p2137
I2216
sS'otherwise'
p2138
I4498
sS'bodies'
p2139
I1351
sS'justify'
p2140
I1352
sS'summer'
p2141
I3726
sS'outdoor'
p2142
I707
sS'being'
p2143
I126
sS'money'
p2144
I3099
sS'circuit'
p2145
I2266
sS'dancers'
p2146
I4030
sS'actions'
p2147
I1357
sS'civic'
p2148
I3351
sS'wally'
p2149
I1963
sS'violent'
p2150
I4654
sS'relevant'
p2151
I3252
sS'properties'
p2152
I3949
sS'handed'
p2153
I4287
sS'aspect'
p2154
I4361
sS'sufficiently'
p2155
I3875
sS'touch'
p2156
I1635
sS'speed'
p2157
I1636
sS'weekly'
p2158
I1283
sS'blow'
p2159
I4656
sS'announcement'
p2160
I2217
sS'death'
p2161
I2544
sS'application'
p2162
I484
sS'thinking'
p2163
I4031
sS'rose'
p2164
I3423
sS'seems'
p2165
I3424
sS'except'
p2166
I2219
sS'civil'
p2167
I3352
sS'eisenhower'
p2168
I2373
sS'instrument'
p2169
I3727
sS'lets'
p2170
I984
sS'interested'
p2171
I1556
sS'pile'
p2172
I3100
sS'treatment'
p2173
I1637
sS'samples'
p2174
I4657
sS'bond'
p2175
I3739
sS'role'
p2176
I72
sS'struck'
p2177
I1638
sS'bread'
p2178
I3918
sS'real'
p2179
I1639
sS'arent'
p2180
I3101
sS'aspects'
p2181
I2482
sS'around'
p2182
I2483
sS'spectacular'
p2183
I2796
sS'easily'
p2184
I4391
sS'read'
p2185
I1640
sS'specimen'
p2186
I1641
sS'virginia'
p2187
I2222
sS'dark'
p2188
I2484
sS'traffic'
p2189
I127
sS'listening'
p2190
I2798
sS'vacuum'
p2191
I2485
sS'world'
p2192
I128
sS'railroad'
p2193
I2000
sS'accepted'
p2194
I3425
sS'lady'
p2195
I1642
sS'vague'
p2196
I3729
sS'rear'
p2197
I1643
sS'ruled'
p2198
I2799
sS'satisfaction'
p2199
I3410
sS'fortune'
p2200
I400
sS'adams'
p2201
I708
sS'stranger'
p2202
I3730
sS'pounds'
p2203
I1644
sS'collective'
p2204
I2800
sS'serves'
p2205
I3102
sS'facing'
p2206
I3103
sS'chamber'
p2207
I1924
sS'audience'
p2208
I1925
sS'nose'
p2209
I2010
sS'always'
p2210
I1329
sS'output'
p2211
I402
sS'reform'
p2212
I391
sS'stretched'
p2213
I4346
sS'sharp'
p2214
I4388
sS'twelve'
p2215
I403
sS'satisfactory'
p2216
I129
sS'prairie'
p2217
I3975
sS'jews'
p2218
I4365
sS'verbal'
p2219
I404
sS'exposed'
p2220
I405
sS'paris'
p2221
I4536
sS'competition'
p2222
I985
sS'lucy'
p2223
I1806
sS'japanese'
p2224
I4209
sS'calculated'
p2225
I2677
sS'eddie'
p2226
I1645
sS'elements'
p2227
I3811
sS'act'
p2228
I3227
sS'moreover'
p2229
I1624
sS'images'
p2230
I709
sS'racial'
p2231
I1287
sS'divine'
p2232
I130
sS'oxidation'
p2233
I4575
sS'thinks'
p2234
I1288
sS'brothers'
p2235
I2719
sS'gross'
p2236
I1927
sS'dimensions'
p2237
I1289
sS'windows'
p2238
I4695
sS'colonial'
p2239
I3107
sS'tube'
p2240
I1290
sS'recorded'
p2241
I1646
sS'legal'
p2242
I190
sS'moon'
p2243
I987
sS'critical'
p2244
I4366
sS'bridges'
p2245
I4469
sS'provides'
p2246
I2225
sS'moderate'
p2247
I4368
sS'preceding'
p2248
I2154
sS'knife'
p2249
I710
sS'refer'
p2250
I2487
sS'measuring'
p2251
I4369
sS'felt'
p2252
I1855
sS'assembly'
p2253
I406
sS'scientific'
p2254
I3733
sS'power'
p2255
I3734
sS'intimate'
p2256
I3735
sS'seconds'
p2257
I1928
sS'sixth'
p2258
I407
sS'shayne'
p2259
I1648
sS'each'
p2260
I3294
sS'unusual'
p2261
I4348
sS'trials'
p2262
I1776
sS'leadership'
p2263
I131
sS'innocence'
p2264
I408
sS'sixty'
p2265
I409
sS'francis'
p2266
I410
sS'throw'
p2267
I2804
sS'manufacturer'
p2268
I4370
sS'on'
p2269
I2226
sS'stone'
p2270
I3736
sS'central'
p2271
I1649
sS'stations'
p2272
I769
sS'island'
p2273
I1930
sS'industry'
p2274
I1291
sS'violence'
p2275
I4371
sS'discussed'
p2276
I988
sS'factors'
p2277
I4622
sS'side'
p2278
I3738
sS'practical'
p2279
I4372
sS'tremendous'
p2280
I4499
sS'fell'
p2281
I1857
sS'stand'
p2282
I680
sS'youve'
p2283
I3109
sS'mixed'
p2284
I3110
sS'johnston'
p2285
I132
sS'luck'
p2286
I1807
sS'or'
p2287
I2229
sS'road'
p2288
I4373
sS'exactly'
p2289
I4151
sS'outlook'
p2290
I411
sS'lands'
p2291
I1931
sS'smiled'
p2292
I486
sS'burning'
p2293
I3740
sS'instruments'
p2294
I989
sS'image'
p2295
I1292
sS'skilled'
p2296
I711
sS'yourself'
p2297
I4001
sS'authorities'
p2298
I1858
sS'rising'
p2299
I990
sS'lively'
p2300
I133
sS'determine'
p2301
I4661
sS'parties'
p2302
I1293
sS'operator'
p2303
I1651
sS'valuable'
p2304
I2794
sS'your'
p2305
I4040
sS'snakes'
p2306
I3613
sS'fast'
p2307
I2296
sS'prepare'
p2308
I1652
sS'hes'
p2309
I2489
sS'assumed'
p2310
I4042
sS'strictly'
p2311
I2231
sS'there'
p2312
I991
sS'philadelphia'
p2313
I3741
sS'desert'
p2314
I2490
sS'hed'
p2315
I2491
sS'start'
p2316
I412
sS'poured'
p2317
I4082
sS'low'
p2318
I2806
sS'stars'
p2319
I413
sS'house'
p2320
I4393
sS'hen'
p2321
I2492
sS'valley'
p2322
I4663
sS'fish'
p2323
I4664
sS'brooklyn'
p2324
I3774
sS'tight'
p2325
I2498
sS'complete'
p2326
I3743
sS'regard'
p2327
I3432
sS'pitcher'
p2328
I414
sS'delayed'
p2329
I415
sS'principles'
p2330
I1294
sS'cycle'
p2331
I4583
sS'merger'
p2332
I757
sS'trying'
p2333
I1653
sS'with'
p2334
I134
sS'buying'
p2335
I1295
sS'handsome'
p2336
I2493
sS'pull'
p2337
I135
sS'october'
p2338
I2494
sS'arranged'
p2339
I712
sS'romantic'
p2340
I3113
sS'pond'
p2341
I3450
sS'practically'
p2342
I4121
sS'edward'
p2343
I3897
sS'dirty'
p2344
I136
sS'russ'
p2345
I137
sS'grass'
p2346
I992
sS'builders'
p2347
I252
sS'trips'
p2348
I835
sS'detailed'
p2349
I1297
sS'gone'
p2350
I1298
sS'his'
p2351
I4696
sS'taylor'
p2352
I2233
sS'600'
p2353
I416
sS'johnny'
p2354
I2496
sS'taste'
p2355
I993
sS'ah'
p2356
I1299
sS'felix'
p2357
I994
sS'am'
p2358
I1300
sS'al'
p2359
I1301
sS'deep'
p2360
I3114
sS'an'
p2361
I1302
sS'imagination'
p2362
I713
sS'examine'
p2363
I714
sS'educated'
p2364
I3091
sS'at'
p2365
I1304
sS'planets'
p2366
I3116
sS'laboratory'
p2367
I1164
sS'watched'
p2368
I138
sS'moves'
p2369
I1658
sS'match'
p2370
I3261
sS'portland'
p2371
I745
sS'film'
p2372
I3117
sS'fill'
p2373
I3118
sS'hit'
p2374
I4697
sS'again'
p2375
I715
sS'stumbled'
p2376
I2235
sS'blues'
p2377
I3767
sS'receive'
p2378
I3828
sS'personnel'
p2379
I3119
sS'drivers'
p2380
I3120
sS'storage'
p2381
I1659
sS'vocational'
p2382
I2497
sS'graduate'
p2383
I3745
sS'field'
p2384
I1933
sS'that'
p2385
I4002
sS'valid'
p2386
I4043
sS'remarks'
p2387
I3702
sS'you'
p2388
I4044
sS'residence'
p2389
I3719
sS'offered'
p2390
I1918
sS'poor'
p2391
I417
sS'briefly'
p2392
I3434
sS'congress'
p2393
I1305
sS'multiple'
p2394
I4633
sS'students'
p2395
I1934
sS'symbol'
p2396
I4670
sS'teeth'
p2397
I3028
sS'souls'
p2398
I4290
sS'miriam'
p2399
I2499
sS'includes'
p2400
I3879
sS'important'
p2401
I3121
sS'bullets'
p2402
I995
sS'massachusetts'
p2403
I4045
sS'coverage'
p2404
I1660
sS'included'
p2405
I2236
sS'13'
p2406
I3071
sS'pool'
p2407
I418
sS'juniors'
p2408
I1683
sS'fiscal'
p2409
I2811
sS'remote'
p2410
I1935
sS'calls'
p2411
I4671
sS'wife'
p2412
I996
sS'percentage'
p2413
I4563
sS'curve'
p2414
I2238
sS'sounded'
p2415
I2887
sS'observe'
p2416
I3723
sS'week'
p2417
I1330
sS'adam'
p2418
I856
sS'missouri'
p2419
I1479
sS'overseas'
p2420
I419
sS'starting'
p2421
I1936
sS'original'
p2422
I1307
sS'external'
p2423
I4022
sS'represent'
p2424
I1937
sS'colleges'
p2425
I717
sS'surrounded'
p2426
I2837
sS'consider'
p2427
I3746
sS'pointing'
p2428
I1661
sS'caused'
p2429
I139
sS'suburban'
p2430
I1938
sS'stems'
p2431
I1626
sS'dollar'
p2432
I3123
sS'month'
p2433
I420
sS'blanche'
p2434
I1662
sS'concept'
p2435
I350
sS'cooperative'
p2436
I1939
sS'invariably'
p2437
I2079
sS'follow'
p2438
I3899
sS'allowances'
p2439
I1940
sS'religious'
p2440
I421
sS'children'
p2441
I4377
sS'causes'
p2442
I140
sS'particles'
p2443
I4234
sS'apartment'
p2444
I998
sS'coolidge'
p2445
I4378
sS'chain'
p2446
I422
sS'hunting'
p2447
I3282
sS'fellowship'
p2448
I3921
sS'everywhere'
p2449
I2440
sS'subjected'
p2450
I2240
sS'centers'
p2451
I3816
sS'laid'
p2452
I880
sS'thursday'
p2453
I3437
sS'former'
p2454
I121
sS'to'
p2455
I2503
sS'tail'
p2456
I2504
sS'program'
p2457
I2242
sS'commander'
p2458
I2789
sS'present'
p2459
I3561
sS'dressing'
p2460
I1309
sS'health'
p2461
I2264
sS'200'
p2462
I4278
sS'presentation'
p2463
I2243
sS'assist'
p2464
I4394
sS'sound'
p2465
I700
sS'woman'
p2466
I1778
sS'appointment'
p2467
I2505
sS'citizen'
p2468
I2055
sS'sitting'
p2469
I718
sS'very'
p2470
I1663
sS'ramey'
p2471
I719
sS'myself'
p2472
I3416
sS'saved'
p2473
I3895
sS'focus'
p2474
I3359
sS'me'
p2475
I3034
sS'sons'
p2476
I4676
sS'worst'
p2477
I2245
sS'decide'
p2478
I423
sS'fall'
p2479
I1941
sS'labor'
p2480
I4471
sS'difference'
p2481
I3125
sS'condition'
p2482
I1310
sS'switches'
p2483
I3964
sS'motor'
p2484
I4735
sS'heaven'
p2485
I4048
sS'washing'
p2486
I721
sS'mothers'
p2487
I1942
sS'louis'
p2488
I2813
sS'list'
p2489
I999
sS'joined'
p2490
I2507
sS'large'
p2491
I2508
sS'sang'
p2492
I141
sS'sand'
p2493
I879
sS'harry'
p2494
I2509
sS'small'
p2495
I142
sS'study'
p2496
I1487
sS'maggie'
p2497
I2510
sS'owned'
p2498
I1433
sS'charlie'
p2499
I4584
sS'neighborhood'
p2500
I4379
sS'ten'
p2501
I2246
sS'tea'
p2502
I2247
sS'streets'
p2503
I424
sS'3'
p2504
I4017
sS'past'
p2505
I143
sS'go'
p2506
I1734
sS'zero'
p2507
I722
sS'fiber'
p2508
I4685
sS'design'
p2509
I2249
sS'displays'
p2510
I144
sS'lawyer'
p2511
I1944
sS'pass'
p2512
I145
sS'further'
p2513
I4380
sS'investment'
p2514
I146
sS'returned'
p2515
I2506
sS'conscience'
p2516
I1664
sS'what'
p2517
I3439
sS'adjustment'
p2518
I4726
sS'stood'
p2519
I1945
sS'drill'
p2520
I1416
sS'richard'
p2521
I3748
sS'sun'
p2522
I1000
sS'sum'
p2523
I1001
sS'lawrence'
p2524
I3156
sS'brief'
p2525
I1002
sS'emotions'
p2526
I4052
sS'thickness'
p2527
I2815
sS'witnesses'
p2528
I1665
sS'version'
p2529
I1003
sS'attitudes'
p2530
I4678
sS'scientists'
p2531
I2511
sS'learned'
p2532
I425
sS'sets'
p2533
I4514
sS'racing'
p2534
I3440
sS'guns'
p2535
I2251
sS'contrast'
p2536
I1312
sS'daily'
p2537
I4289
sS'full'
p2538
I147
sS'desegregation'
p2539
I148
sS'policies'
p2540
I2476
sS'eliminated'
p2541
I4003
sS'howard'
p2542
I4648
sS'eternal'
p2543
I3296
sS'loose'
p2544
I2816
sS'component'
p2545
I3127
sS'theresa'
p2546
I1005
sS'answers'
p2547
I1667
sS'forgive'
p2548
I4686
sS'hours'
p2549
I1313
sS'operating'
p2550
I1946
sS'excess'
p2551
I426
sS'directions'
p2552
I2252
sS'soon'
p2553
I2831
sS'november'
p2554
I149
sS'strong'
p2555
I1668
sS'table'
p2556
I4659
sS'tragedy'
p2557
I1006
sS'dining'
p2558
I2197
sS'search'
p2559
I1947
sS'bible'
p2560
I3128
sS'naval'
p2561
I1007
sS'conviction'
p2562
I427
sS'houses'
p2563
I441
sS'inspired'
p2564
I428
sS'losses'
p2565
I429
sS'reason'
p2566
I2839
sS'experience'
p2567
I150
sS'host'
p2568
I4522
sS'prior'
p2569
I151
sS'amount'
p2570
I4053
sS'sba'
p2571
I4191
sS'simply'
p2572
I3183
sS'advertising'
p2573
I2698
sS'gear'
p2574
I4480
sS'pick'
p2575
I1315
sS'action'
p2576
I1316
sS'narrow'
p2577
I1948
sS'myra'
p2578
I3441
sS'via'
p2579
I3751
sS'followed'
p2580
I152
sS'family'
p2581
I2818
sS'france'
p2582
I4305
sS'marginal'
p2583
I431
sS'africa'
p2584
I727
sS'marriages'
p2585
I1317
sS'ask'
p2586
I432
sS'regiment'
p2587
I3752
sS'aimed'
p2588
I2819
sS'trained'
p2589
I4054
sS'establish'
p2590
I1949
sS'select'
p2591
I3753
sS'readily'
p2592
I3130
sS'languages'
p2593
I1069
sS'conventional'
p2594
I433
sS'eye'
p2595
I3131
sS'takes'
p2596
I2820
sS'answered'
p2597
I1864
sS'distinct'
p2598
I4385
sS'objectives'
p2599
I3754
sS'contains'
p2600
I2821
sS'single'
p2601
I3203
sS'two'
p2602
I3132
sS'sitter'
p2603
I2513
sS'familiar'
p2604
I3858
sS'6'
p2605
I2514
sS'taken'
p2606
I2714
sS'chicken'
p2607
I4759
sS'injury'
p2608
I1673
sS'markets'
p2609
I3443
sS'minor'
p2610
I3444
sS'more'
p2611
I153
sS'horses'
p2612
I1009
sS'flat'
p2613
I1010
sS'door'
p2614
I154
sS'knows'
p2615
I3445
sS'substances'
p2616
I155
sS'readers'
p2617
I2556
sS'company'
p2618
I156
sS'emission'
p2619
I3755
sS'telephone'
p2620
I4650
sS'permit'
p2621
I4214
sS'tested'
p2622
I157
sS'controlling'
p2623
I1950
sS'stick'
p2624
I4680
sS'broke'
p2625
I1674
sS'varying'
p2626
I2158
sS'known'
p2627
I1559
sS'foundations'
p2628
I2515
sS'hurry'
p2629
I1675
sS'producing'
p2630
I434
sS'suffered'
p2631
I3033
sS'glad'
p2632
I3446
sS'wealth'
p2633
I3041
sS'town'
p2634
I1951
sS'none'
p2635
I1952
sS'hour'
p2636
I729
sS'middle'
p2637
I1920
sS'recall'
p2638
I730
sS'equation'
p2639
I2254
sS'roosevelt'
p2640
I2163
sS'acts'
p2641
I4618
sS'guards'
p2642
I731
sS'remain'
p2643
I732
sS'pressing'
p2644
I3093
sS'nine'
p2645
I285
sS'sent'
p2646
I1401
sS'morgan'
p2647
I2516
sS'learn'
p2648
I158
sS'knocked'
p2649
I159
sS'male'
p2650
I3756
sS'performances'
p2651
I4080
sS'marble'
p2652
I1953
sS'history'
p2653
I2825
sS'beautiful'
p2654
I1320
sS'compare'
p2655
I1954
sS'stated'
p2656
I1321
sS'final'
p2657
I4150
sS'pont'
p2658
I3449
sS'suggestions'
p2659
I2517
sS'accept'
p2660
I1322
sS'terrible'
p2661
I4068
sS'states'
p2662
I1323
sS'pushed'
p2663
I1676
sS'minimum'
p2664
I734
sS'childrens'
p2665
I4523
sS'numbers'
p2666
I735
sS'sense'
p2667
I1324
sS'phrase'
p2668
I435
sS'talents'
p2669
I3659
sS'swung'
p2670
I3451
sS'robinson'
p2671
I736
sS'species'
p2672
I2826
sS'axis'
p2673
I1325
sS'huge'
p2674
I160
sS'needs'
p2675
I737
sS'answer'
p2676
I4222
sS'court'
p2677
I1577
sS'goal'
p2678
I3452
sS'rather'
p2679
I1580
sS'departments'
p2680
I1932
sS'comfort'
p2681
I738
sS'milk'
p2682
I4292
sS'conducted'
p2683
I3158
sS'stayed'
p2684
I4056
sS'occasionally'
p2685
I1011
sS'sacred'
p2686
I739
sS'browns'
p2687
I3379
sS'either'
p2688
I3104
sS'recording'
p2689
I3166
sS'plant'
p2690
I3758
sS'shouldnt'
p2691
I3995
sS'ft'
p2692
I1677
sS'intended'
p2693
I161
sS'suppose'
p2694
I4263
sS'advice'
p2695
I3134
sS'derived'
p2696
I4058
sS'different'
p2697
I4355
sS'gate'
p2698
I4546
sS'questioning'
p2699
I740
sS'reflect'
p2700
I4681
sS'consequence'
p2701
I3463
sS'interior'
p2702
I4276
sS'plane'
p2703
I3760
sS'lighting'
p2704
I1012
sS'blood'
p2705
I1955
sS'coming'
p2706
I741
sS'pat'
p2707
I4356
sS'response'
p2708
I4389
sS'a'
p2709
I4059
sS'short'
p2710
I1013
sS'chiefly'
p2711
I3453
sS'susan'
p2712
I1014
sS'coat'
p2713
I2193
sS'quoted'
p2714
I3941
sS'register'
p2715
I2519
sS'coal'
p2716
I1957
sS'shore'
p2717
I1015
sS'responsibility'
p2718
I3136
sS'fundamental'
p2719
I2520
sS'banks'
p2720
I2828
sS'pleasure'
p2721
I1958
sS'dream'
p2722
I2829
sS'playing'
p2723
I3137
sS'replied'
p2724
I162
sS'rifles'
p2725
I3138
sS'mexican'
p2726
I1328
sS'help'
p2727
I2830
sS'september'
p2728
I2257
sS'developed'
p2729
I1615
sS'flowers'
p2730
I4004
sS'mission'
p2731
I2258
sS'fabrics'
p2732
I4574
sS'installed'
p2733
I163
sS'relieved'
p2734
I4690
sS'held'
p2735
I2832
sS'isnt'
p2736
I1016
sS'paper'
p2737
I164
sS'through'
p2738
I742
sS'committee'
p2739
I4060
sS'signs'
p2740
I964
sS'existence'
p2741
I1959
sS'smiling'
p2742
I165
sS'suffer'
p2743
I3140
sS'avenue'
p2744
I1017
sS'its'
p2745
I3764
sS'roots'
p2746
I166
sS'24'
p2747
I3141
sS'25'
p2748
I3142
sS'26'
p2749
I3143
sS'27'
p2750
I3144
sS'20'
p2751
I3145
sS'probability'
p2752
I1690
sS'22'
p2753
I3147
sS'23'
p2754
I3148
sS'continued'
p2755
I3819
sS'sale'
p2756
I3705
sS'fate'
p2757
I1780
sS'29'
p2758
I3150
sS'actually'
p2759
I4062
sS'late'
p2760
I1960
sS'absence'
p2761
I2787
sS'parts'
p2762
I3456
sS'systems'
p2763
I436
sS'attended'
p2764
I4625
sS'annual'
p2765
I4423
sS'factories'
p2766
I2824
sS'cool'
p2767
I3365
sS'might'
p2768
I2259
sS'anniversary'
p2769
I4677
sS'fool'
p2770
I1678
sS'evening'
p2771
I437
sS'somebody'
p2772
I1018
sS'calm'
p2773
I4220
sS'than'
p2774
I4005
sS'seeking'
p2775
I1961
sS'food'
p2776
I1679
sS'components'
p2777
I4653
sS'encouraging'
p2778
I884
sS'inch'
p2779
I3564
sS'walls'
p2780
I1962
sS'foot'
p2781
I1680
sS'sighed'
p2782
I2162
sS'chicago'
p2783
I4451
sS'bigger'
p2784
I2262
sS'instructions'
p2785
I1019
sS'mystery'
p2786
I744
sS'desperately'
p2787
I1681
sS'hearts'
p2788
I4585
sS'instances'
p2789
I4397
sS'fully'
p2790
I401
sS'presented'
p2791
I2727
sS'courses'
p2792
I167
sS'someone'
p2793
I2213
sS'habits'
p2794
I1965
sS'stopped'
p2795
I2836
sS'eager'
p2796
I2558
sS'die'
p2797
I4297
sS'inherent'
p2798
I2263
sS'friendship'
p2799
I3458
sS'notes'
p2800
I4730
sS'characterized'
p2801
I3459
sS'referred'
p2802
I1682
sS'heavy'
p2803
I438
sS'reactions'
p2804
I168
sS'harm'
p2805
I3152
sS'everyone'
p2806
I1966
sS'england'
p2807
I3766
sS'upstairs'
p2808
I2522
sS'weight'
p2809
I1020
sS'generation'
p2810
I4684
sS'posts'
p2811
I936
sS'energy'
p2812
I3153
sS'hard'
p2813
I3154
sS'reduce'
p2814
I2523
sS'idea'
p2815
I1967
sS'brother'
p2816
I4604
sS'finish'
p2817
I1631
sS'expect'
p2818
I3460
sS'fist'
p2819
I3155
sS'measurement'
p2820
I1200
sS'operation'
p2821
I169
sS'beyond'
p2822
I4063
sS'insurance'
p2823
I1968
sS'britain'
p2824
I4666
sS'really'
p2825
I3768
sS'try'
p2826
I2580
sS'flower'
p2827
I4774
sS'jane'
p2828
I3656
sS'missed'
p2829
I1332
sS'wondered'
p2830
I3461
sS'item'
p2831
I3036
sS'robert'
p2832
I1684
sS'since'
p2833
I1685
sS'douglas'
p2834
I2812
sS'research'
p2835
I170
sS'reverend'
p2836
I3462
sS'acting'
p2837
I4194
sS'safety'
p2838
I439
sS'hill'
p2839
I1021
sS'7'
p2840
I440
sS'evaluation'
p2841
I747
sS'occurs'
p2842
I171
sS'highway'
p2843
I1334
sS'drink'
p2844
I2627
sS'brought'
p2845
I3597
sS'belief'
p2846
I2524
sS'dirt'
p2847
I1686
sS'friday'
p2848
I1022
sS'horse'
p2849
I445
sS'effect'
p2850
I4181
sS'pleasant'
p2851
I1969
sS'extraordinary'
p2852
I748
sS'johnnie'
p2853
I442
sS'base'
p2854
I430
sS'members'
p2855
I3157
sS'imagine'
p2856
I1335
sS'backed'
p2857
I749
sS'equipped'
p2858
I1272
sS'teach'
p2859
I2265
sS'earliest'
p2860
I4066
sS'beginning'
p2861
I750
sS'sidewalk'
p2862
I3969
sS'heroic'
p2863
I1688
sS'temperature'
p2864
I2267
sS'thrown'
p2865
I4055
sS'definition'
p2866
I172
sS'owners'
p2867
I2525
sS'retained'
p2868
I3770
sS'english'
p2869
I4775
sS'brown'
p2870
I3967
sS'just'
p2871
I4273
sS'so'
p2872
I2446
sS'americas'
p2873
I443
sS'american'
p2874
I444
sS'harris'
p2875
I1281
sS'w'
p2876
I1336
sS'leading'
p2877
I1689
sS'testament'
p2878
I174
sS'fallen'
p2879
I1024
sS'feed'
p2880
I3464
sS'major'
p2881
I3771
sS'dont'
p2882
I3159
sS'slipped'
p2883
I1337
sS'upper'
p2884
I3971
sS'feel'
p2885
I3465
sS'cady'
p2886
I3225
sS'number'
p2887
I1338
sS'welcome'
p2888
I2720
sS'traveled'
p2889
I1025
sS'feet'
p2890
I3466
sS'sympathy'
p2891
I3467
sS'revolution'
p2892
I1563
sS'done'
p2893
I4683
sS'fees'
p2894
I1229
sS'says'
p2895
I3468
sS'wages'
p2896
I1970
sS'heights'
p2897
I746
sS'miss'
p2898
I4071
sS'ladies'
p2899
I3430
sS'story'
p2900
I1026
sS'heads'
p2901
I1339
sS'jew'
p2902
I1023
sS'jet'
p2903
I2527
sS'boating'
p2904
I4240
sS'introduction'
p2905
I2528
sS'automobile'
p2906
I1027
sS'threatening'
p2907
I1340
sS'least'
p2908
I3160
sS'player'
p2909
I3638
sS'paint'
p2910
I1972
sS'station'
p2911
I446
sS'smile'
p2912
I3747
sS'storm'
p2913
I1029
sS'mama'
p2914
I1973
sS'rates'
p2915
I4400
sS'hundred'
p2916
I447
sS'southern'
p2917
I3987
sS'store'
p2918
I1031
sS'observations'
p2919
I2669
sS'noted'
p2920
I4732
sS'selling'
p2921
I2842
sS'statement'
p2922
I4399
sS'relationship'
p2923
I1341
sS'behind'
p2924
I1910
sS'1'
p2925
I3373
sS'johnson'
p2926
I3051
sS'hotel'
p2927
I3469
sS'park'
p2928
I3162
sS'immediate'
p2929
I1342
sS'appreciation'
p2930
I1343
sS'assumption'
p2931
I3161
sS'part'
p2932
I3163
sS'favorable'
p2933
I4402
sS'rifle'
p2934
I1032
sS'norms'
p2935
I2844
sS'believe'
p2936
I3165
sS'stairs'
p2937
I3772
sS'grace'
p2938
I1344
sS'fred'
p2939
I4556
sS'center'
p2940
I2050
sS'diffusion'
p2941
I1345
sS'king'
p2942
I1033
sS'kind'
p2943
I1034
sS'legs'
p2944
I1171
sS'decided'
p2945
I2999
sS'bag'
p2946
I4254
sS'double'
p2947
I4692
sS'instruction'
p2948
I2268
sS'ranging'
p2949
I3618
sS'jurisdiction'
p2950
I2995
sS'bride'
p2951
I460
sS'autumn'
p2952
I3372
sS'determined'
p2953
I1346
sS'marriage'
p2954
I1347
sS'supposed'
p2955
I3167
sS'elaborate'
p2956
I2361
sS'toward'
p2957
I449
sS'treated'
p2958
I4405
sS'weapon'
p2959
I2051
sS'mickey'
p2960
I2845
sS'outstanding'
p2961
I4095
sS'wasnt'
p2962
I450
sS'congressional'
p2963
I3710
sS'ages'
p2964
I4636
sS'substantial'
p2965
I1692
sS'contest'
p2966
I4198
sS'concentration'
p2967
I4075
sS'elaine'
p2968
I1480
sS'sell'
p2969
I175
sS'lie'
p2970
I4076
sS'wilson'
p2971
I1712
sS'nights'
p2972
I3471
sS'built'
p2973
I4407
sS'procurement'
p2974
I2052
sS'check'
p2975
I4594
sS'pa'
p2976
I2282
sS'self'
p2977
I176
sS'officers'
p2978
I2846
sS'targets'
p2979
I650
sS'onset'
p2980
I1975
sS'also'
p2981
I177
sS'costs'
p2982
I1282
sS'bobbie'
p2983
I3773
sS'sharpe'
p2984
I178
sS'finding'
p2985
I3472
sS'tool'
p2986
I2109
sS'apply'
p2987
I4736
sS'club'
p2988
I3981
sS'play'
p2989
I1348
sS'towards'
p2990
I1693
sS'electric'
p2991
I1035
sS'retired'
p2992
I1568
sS'albert'
p2993
I2670
sS'eggs'
p2994
I753
sS'measures'
p2995
I2270
sS'reach'
p2996
I4693
sS'chart'
p2997
I754
sS'breaking'
p2998
I2256
sS'most'
p2999
I3170
sS'75'
p3000
I3474
sS'hired'
p3001
I451
sS'charm'
p3002
I755
sS'plan'
p3003
I1349
sS'significant'
p3004
I1976
sS'70'
p3005
I3475
sS'services'
p3006
I756
sS'accepting'
p3007
I2530
sS'kay'
p3008
I2850
sS'prestige'
p3009
I3477
sS'measured'
p3010
I2271
sS'revolutionary'
p3011
I4067
sS'refrigerator'
p3012
I4409
sS'constitution'
p3013
I2165
sS'salary'
p3014
I1694
sS'constructed'
p3015
I4595
sS'dealers'
p3016
I1036
sS'mobile'
p3017
I4079
sS'crossing'
p3018
I2907
sS'clear'
p3019
I4081
sS'sometimes'
p3020
I179
sS'cover'
p3021
I1350
sS'traditional'
p3022
I1037
sS'intention'
p3023
I4754
sS'artistic'
p3024
I3775
sS'clean'
p3025
I4083
sS'velocity'
p3026
I452
sS'barrel'
p3027
I180
sS'usual'
p3028
I2851
sS'physics'
p3029
I453
sS'institutions'
p3030
I2272
sS'lying'
p3031
I1038
sS'thomas'
p3032
I1977
sS'golf'
p3033
I2531
sS'phenomenon'
p3034
I454
sS'gold'
p3035
I2532
sS'obligations'
p3036
I4412
sS'authors'
p3037
I2843
sS'scattered'
p3038
I1978
sS'session'
p3039
I1353
sS'relation'
p3040
I4413
sS'freight'
p3041
I2534
sS'jury'
p3042
I2431
sS'carefully'
p3043
I2305
sS'excessive'
p3044
I2273
sS'melody'
p3045
I2274
sS'uniform'
p3046
I2730
sS'fine'
p3047
I4414
sS'group'
p3048
I4172
sS'occupation'
p3049
I181
sS'impact'
p3050
I1354
sS'cell'
p3051
I4126
sS'giant'
p3052
I4416
sS'regulations'
p3053
I2885
sS'northern'
p3054
I2852
sS'justice'
p3055
I455
sS'nervous'
p3056
I1979
sS'writes'
p3057
I2535
sS'stockholders'
p3058
I1355
sS'distributed'
p3059
I3172
sS'fruit'
p3060
I1632
sS'failed'
p3061
I1356
sS'indian'
p3062
I3823
sS'morris'
p3063
I3233
sS'pretty'
p3064
I1696
sS'factor'
p3065
I2537
sS'8'
p3066
I3174
sS'circle'
p3067
I4084
sS'columns'
p3068
I182
sS'loved'
p3069
I4482
sS'giants'
p3070
I3777
sS'weve'
p3071
I4417
sS'dominant'
p3072
I2853
sS'meanwhile'
p3073
I1697
sS'dependent'
p3074
I3778
sS'liquid'
p3075
I3779
sS'lawyers'
p3076
I4102
sS'express'
p3077
I759
sS'financing'
p3078
I4072
sS'trees'
p3079
I1698
sS'famous'
p3080
I1699
sS'feels'
p3081
I456
sS'b'
p3082
I1974
sS'rest'
p3083
I2480
sS'closely'
p3084
I1358
sS'international'
p3085
I652
sS'during'
p3086
I1700
sS'him'
p3087
I4138
sS'domestic'
p3088
I4516
sS'alexander'
p3089
I2855
sS'enemy'
p3090
I2539
sS'roles'
p3091
I3307
sS'cry'
p3092
I2540
sS'remove'
p3093
I3175
sS'laughing'
p3094
I4363
sS'common'
p3095
I3176
sS'activity'
p3096
I2276
sS'kill'
p3097
I4655
sS'river'
p3098
I3780
sS'wrote'
p3099
I1039
sS'rooms'
p3100
I2630
sS'characteristics'
p3101
I4353
sS'seventeen'
p3102
I515
sS'set'
p3103
I1359
sS'art'
p3104
I4699
sS'guys'
p3105
I1879
sS'achieved'
p3106
I3480
sS'intelligence'
p3107
I4700
sS'accompanied'
p3108
I3846
sS'tended'
p3109
I1982
sS'sex'
p3110
I1360
sS'culture'
p3111
I458
sS'see'
p3112
I1361
sS'defense'
p3113
I1040
sS'bare'
p3114
I3519
sS'are'
p3115
I4702
sS'sea'
p3116
I1362
sS'musicians'
p3117
I3614
sS'sen'
p3118
I1363
sS'skill'
p3119
I4183
sS'lee'
p3120
I1409
sS'preparation'
p3121
I2979
sS'practice'
p3122
I4746
sS'potential'
p3123
I3081
sS'desires'
p3124
I2306
sS'expert'
p3125
I760
sS'visiting'
p3126
I4418
sS'pictures'
p3127
I461
sS'leg'
p3128
I1410
sS'please'
p3129
I4419
sS'utopia'
p3130
I4073
sS'libraries'
p3131
I4705
sS'fans'
p3132
I3177
sS'greg'
p3133
I448
sS'various'
p3134
I4707
sS'use'
p3135
I3986
sS'respectively'
p3136
I3824
sS'architect'
p3137
I3470
sS'burned'
p3138
I3178
sS'halfway'
p3139
I3422
sS'conditions'
p3140
I2858
sS'clerk'
p3141
I4299
sS'coach'
p3142
I3358
sS'wide'
p3143
I4631
sS'knowing'
p3144
I1101
sS'latin'
p3145
I3482
sS'recently'
p3146
I2278
sS'creating'
p3147
I3483
sS'unconscious'
p3148
I2859
sS'missing'
p3149
I462
sS'sold'
p3150
I1765
sS'attention'
p3151
I4074
sS'deliberately'
p3152
I3192
sS'incident'
p3153
I2543
sS'opposition'
p3154
I4708
sS'competent'
p3155
I3484
sS'citys'
p3156
I1041
sS'remaining'
p3157
I2872
sS'legislature'
p3158
I2545
sS'league'
p3159
I463
sS'prospects'
p3160
I3786
sS'last'
p3161
I1113
sS'license'
p3162
I2279
sS'restaurant'
p3163
I761
sS'crime'
p3164
I2203
sS'wed'
p3165
I256
sS'event'
p3166
I4064
sS'foreign'
p3167
I762
sS'sensitive'
p3168
I4089
sS'connection'
p3169
I184
sS'campaign'
p3170
I4215
sS'context'
p3171
I3486
sS'forgotten'
p3172
I2926
sS'reply'
p3173
I4607
sS'mean'
p3174
I2970
sS'whole'
p3175
I1364
sS'finds'
p3176
I4711
sS'experimental'
p3177
I464
sS'load'
p3178
I3789
sS'liked'
p3179
I2609
sS'yards'
p3180
I3667
sS'point'
p3181
I764
sS'reasons'
p3182
I2280
sS'sweet'
p3183
I1042
sS'loan'
p3184
I3790
sS'obanion'
p3185
I4092
sS'steele'
p3186
I4093
sS'oxygen'
p3187
I3919
sS'community'
p3188
I1366
sS'lake'
p3189
I4518
sS'dances'
p3190
I3181
sS'tennessee'
p3191
I765
sS'agents'
p3192
I1367
sS'village'
p3193
I1043
sS'throughout'
p3194
I1985
sS'expensive'
p3195
I766
sS'belt'
p3196
I185
sS'decline'
p3197
I3487
sS'finally'
p3198
I4294
sS'devil'
p3199
I3791
sS'described'
p3200
I1702
sS'raise'
p3201
I4424
sS'planetary'
p3202
I2994
sS'equivalent'
p3203
I2802
sS'create'
p3204
I1986
sS'acceptance'
p3205
I1368
sS'political'
p3206
I3488
sS'verse'
p3207
I399
sS'appears'
p3208
I1565
sS'whom'
p3209
I4712
sS'secret'
p3210
I1987
sS'describes'
p3211
I1703
sS'damn'
p3212
I2860
sS'maintenance'
p3213
I1704
sS'laos'
p3214
I1988
sS'collected'
p3215
I2861
sS'applying'
p3216
I2232
sS'faulkner'
p3217
I186
sS'territory'
p3218
I4096
sS'meeting'
p3219
I4425
sS'chandler'
p3220
I2283
sS'empty'
p3221
I465
sS'4'
p3222
I1923
sS'firm'
p3223
I1369
sS'lived'
p3224
I466
sS'flight'
p3225
I1044
sS'champion'
p3226
I2547
sS'gay'
p3227
I3184
sS'boy'
p3228
I655
sS'fire'
p3229
I1370
sS'crack'
p3230
I1706
sS'gas'
p3231
I3185
sS'precision'
p3232
I1045
sS'new'
p3233
I1795
sS'else'
p3234
I1707
sS'fund'
p3235
I1371
sS'races'
p3236
I2548
sS'lives'
p3237
I467
sS'representative'
p3238
I2549
sS'folklore'
p3239
I4099
sS'demand'
p3240
I1046
sS'prices'
p3241
I1990
sS'ways'
p3242
I4643
sS'wedding'
p3243
I894
sS'extensive'
p3244
I4362
sS'plants'
p3245
I3490
sS'georgia'
p3246
I3491
sS'uncertain'
p3247
I2550
sS'urethane'
p3248
I2156
sS'raw'
p3249
I4566
sS'frozen'
p3250
I1792
sS'belly'
p3251
I3008
sS'reliable'
p3252
I1140
sS'bill'
p3253
I1991
sS'elections'
p3254
I767
sS'governor'
p3255
I1708
sS'pace'
p3256
I468
sS'while'
p3257
I4100
sS'replaced'
p3258
I3186
sS'pressed'
p3259
I188
sS'behavior'
p3260
I4714
sS'error'
p3261
I2552
sS'fun'
p3262
I1992
sS'mitchell'
p3263
I1709
sS'guide'
p3264
I469
sS'loop'
p3265
I2865
sS'pack'
p3266
I470
sS'scheduled'
p3267
I2221
sS'katanga'
p3268
I4101
sS'30'
p3269
I3214
sS'10000'
p3270
I2866
sS'hoping'
p3271
I3795
sS'employees'
p3272
I4265
sS'century'
p3273
I768
sS'cents'
p3274
I1993
sS'wherever'
p3275
I1235
sS'owen'
p3276
I1373
sS'motors'
p3277
I1058
sS'encountered'
p3278
I1994
sS'itself'
p3279
I4427
sS'anode'
p3280
I92
sS'seen'
p3281
I2985
sS'ready'
p3282
I2867
sS'carbon'
p3283
I1191
sS'34'
p3284
I3216
sS'kings'
p3285
I2922
sS'saline'
p3286
I2369
sS'funny'
p3287
I1374
sS'italy'
p3288
I4428
sS'shirt'
p3289
I1047
sS'grant'
p3290
I471
sS'lengths'
p3291
I4716
sS'belong'
p3292
I582
sS'orders'
p3293
I3168
sS'textile'
p3294
I4429
sS'rules'
p3295
I2797
sS'virtually'
p3296
I3798
sS'widely'
p3297
I4717
sS'grand'
p3298
I472
sS'9'
p3299
I1048
sS'products'
p3300
I1736
sS'proved'
p3301
I2785
sS'relatively'
p3302
I3187
sS'composition'
p3303
I2968
sS'conflict'
p3304
I2868
sS'higher'
p3305
I1049
sS'development'
p3306
I852
sS'used'
p3307
I1710
sS'temporary'
p3308
I1711
sS'forced'
p3309
I3926
sS'keys'
p3310
I4431
sS'assignment'
p3311
I1995
sS'discuss'
p3312
I3993
sS'yesterday'
p3313
I4432
sS'alert'
p3314
I2553
sS'husbands'
p3315
I3188
sS'moment'
p3316
I1996
sS'levels'
p3317
I1375
sS'uses'
p3318
I1713
sS'purpose'
p3319
I3189
sS'necessity'
p3320
I2554
sS'illinois'
p3321
I4793
sS'loaded'
p3322
I3005
sS'recent'
p3323
I1376
sS'early'
p3324
I4033
sS'lower'
p3325
I2287
sS'task'
p3326
I770
sS'older'
p3327
I2869
sS'salvation'
p3328
I493
sS'poland'
p3329
I4104
sS'dancing'
p3330
I2468
sS'spent'
p3331
I1997
sS'analysis'
p3332
I4244
sS'obviously'
p3333
I473
sS'person'
p3334
I1174
sS'edge'
p3335
I4720
sS'machinery'
p3336
I1051
sS'thoroughly'
p3337
I888
sS'entry'
p3338
I2388
sS'spend'
p3339
I1998
sS'prevention'
p3340
I37
sS'yankees'
p3341
I4105
sS'ambassador'
p3342
I596
sS'moving'
p3343
I4718
sS'judgments'
p3344
I598
sS'removed'
p3345
I4593
sS'competitive'
p3346
I2289
sS'quarters'
p3347
I1714
sS'shape'
p3348
I772
sS'openly'
p3349
I3190
sS'atomic'
p3350
I1999
sS'questions'
p3351
I1052
sS'using'
p3352
I4201
sS'regardless'
p3353
I363
sS'alternative'
p3354
I773
sS'prince'
p3355
I1260
sS'addresses'
p3356
I4127
sS'wage'
p3357
I47
sS'tables'
p3358
I3495
sS'porch'
p3359
I4738
sS'cut'
p3360
I774
sS'helping'
p3361
I3509
sS'waste'
p3362
I3865
sS'cup'
p3363
I775
sS'hated'
p3364
I2001
sS'admission'
p3365
I2557
sS'danger'
p3366
I4128
sS'attractive'
p3367
I3570
sS'exclusively'
p3368
I2290
sS'signals'
p3369
I3799
sS'source'
p3370
I776
sS'governmental'
p3371
I3497
sS'internal'
p3372
I2529
sS'parents'
p3373
I192
sS'questioned'
p3374
I474
sS'presidents'
p3375
I3724
sS'contrary'
p3376
I4404
sS'furniture'
p3377
I3426
sS'administrative'
p3378
I3193
sS'excited'
p3379
I2003
sS'surprised'
p3380
I3800
sS'chairman'
p3381
I4106
sS'associations'
p3382
I3498
sS'customers'
p3383
I1392
sS'victims'
p3384
I1378
sS'forces'
p3385
I3928
sS'emergency'
p3386
I193
sS'demands'
p3387
I1379
sS'big'
p3388
I4434
sS'showing'
p3389
I475
sS'wives'
p3390
I195
sS'matters'
p3391
I2004
sS'suffering'
p3392
I2559
sS'marked'
p3393
I3978
sS'bit'
p3394
I4436
sS'wings'
p3395
I2875
sS'projects'
p3396
I3801
sS'helpful'
p3397
I2345
sS'pertinent'
p3398
I1380
sS'lost'
p3399
I545
sS'mans'
p3400
I2473
sS'follows'
p3401
I2409
sS'signal'
p3402
I1716
sS'kennedy'
p3403
I3427
sS'chest'
p3404
I4245
sS'background'
p3405
I4277
sS'shapes'
p3406
I3500
sS'flux'
p3407
I3194
sS'arthur'
p3408
I2292
sS'individuals'
p3409
I196
sS'popular'
p3410
I476
sS'healthy'
p3411
I3367
sS'mathematical'
p3412
I2876
sS'methods'
p3413
I197
sS'absolutely'
p3414
I777
sS'spring'
p3415
I2564
sS'fathers'
p3416
I4108
sS'creation'
p3417
I1717
sS'some'
p3418
I4109
sS'back'
p3419
I2006
sS'understood'
p3420
I2293
sS'lips'
p3421
I477
sS'economic'
p3422
I478
sS'palm'
p3423
I1218
sS'examples'
p3424
I2007
sS'sight'
p3425
I1381
sS'mirror'
p3426
I3196
sS'curious'
p3427
I1222
sS'pale'
p3428
I2566
sS'ourselves'
p3429
I4439
sS'delivered'
p3430
I2877
sS'gradually'
p3431
I2294
sS'scale'
p3432
I2424
sS'dull'
p3433
I2884
sS'contacts'
p3434
I2425
sS'singing'
p3435
I4129
sS'decision'
p3436
I778
sS'measurements'
p3437
I198
sS'integration'
p3438
I2008
sS'per'
p3439
I2009
sS'providence'
p3440
I2878
sS'civilization'
p3441
I1719
sS'market'
p3442
I3979
sS'tends'
p3443
I2295
sS'anne'
p3444
I4722
sS'worship'
p3445
I2177
sS'temple'
p3446
I3804
sS'minimal'
p3447
I2879
sS't'
p3448
I2801
sS'be'
p3449
I1382
sS'skyros'
p3450
I4441
sS'run'
p3451
I1720
sS'hold'
p3452
I4420
sS'300'
p3453
I82
sS'word'
p3454
I3904
sS'clay'
p3455
I1285
sS'continuing'
p3456
I4443
sS'agreement'
p3457
I1383
sS'holmes'
p3458
I2585
sS'refused'
p3459
I1054
sS'step'
p3460
I2881
sS'nowhere'
p3461
I3805
sS'santa'
p3462
I1384
sS'nerves'
p3463
I2633
sS'warwick'
p3464
I4500
sS'by'
p3465
I1385
sS'vivid'
p3466
I1055
sS'faith'
p3467
I1723
sS'goods'
p3468
I3198
sS'wouldnt'
p3469
I479
sS'cigarette'
p3470
I3473
sS'firing'
p3471
I3502
sS'truck'
p3472
I3678
sS'reduced'
p3473
I3428
sS'drama'
p3474
I4445
sS'range'
p3475
I1056
sS'maude'
p3476
I89
sS'allotment'
p3477
I1724
sS'germany'
p3478
I312
sS'womens'
p3479
I1276
sS'consequently'
p3480
I3363
sS'farmers'
p3481
I3403
sS'silence'
p3482
I480
sS'seeing'
p3483
I1725
sS'plenty'
p3484
I3312
sS'into'
p3485
I199
sS'johns'
p3486
I1057
sS'operational'
p3487
I4761
sS'nothing'
p3488
I3476
sS'appropriate'
p3489
I3806
sS'because'
p3490
I4783
sS'primarily'
p3491
I1387
sS'frames'
p3492
I3199
sS'lesson'
p3493
I3200
sS'sports'
p3494
I3370
sS'morning'
p3495
I4324
sS'risk'
p3496
I4538
sS'impressed'
p3497
I1059
sS'statistics'
p3498
I4113
sS'passed'
p3499
I4689
sS'i'
p3500
I1775
sS'few'
p3501
I2309
sS'spending'
p3502
I3807
sS'extremely'
p3503
I3171
sS'placing'
p3504
I3062
sS'question'
p3505
I1893
sS'long'
p3506
I1060
sS'approved'
p3507
I4078
sS'doubt'
p3508
I1413
sS'germans'
p3509
I2011
sS'heritage'
p3510
I1726
sS'forward'
p3511
I2012
sS'wearing'
p3512
I4249
sS'grew'
p3513
I2854
sS'sections'
p3514
I3503
sS'efforts'
p3515
I4589
sS'vienna'
p3516
I2297
sS'considerably'
p3517
I200
sS'himself'
p3518
I1727
sS'elsewhere'
p3519
I2569
sS'inches'
p3520
I2570
sS'talked'
p3521
I4070
sS'jewish'
p3522
I1390
sS'great'
p3523
I3827
sS'registered'
p3524
I4114
sS'anywhere'
p3525
I3521
sS'hoped'
p3526
I4446
sS'boys'
p3527
I3201
sS'properly'
p3528
I3082
sS'atlantic'
p3529
I201
sS'pacific'
p3530
I2223
sS'filed'
p3531
I3505
sS'russian'
p3532
I1728
sS'line'
p3533
I1391
sS'considerable'
p3534
I202
sS'raising'
p3535
I3506
sS'directed'
p3536
I2469
sS'motive'
p3537
I2932
sS'boards'
p3538
I4615
sS'characteristic'
p3539
I3507
sS'sounds'
p3540
I3064
sS'q'
p3541
I4315
sS'up'
p3542
I2571
sS'us'
p3543
I2572
sS'planet'
p3544
I781
sS'maturity'
p3545
I203
sS'good'
p3546
I4390
sS'growth'
p3547
I2346
sS'exploration'
p3548
I3202
sS'mature'
p3549
I1393
sS'planes'
p3550
I782
sS'continuously'
p3551
I3809
sS'similar'
p3552
I481
sS'medical'
p3553
I1816
sS'yelled'
p3554
I3674
sS'possession'
p3555
I3520
sS'curt'
p3556
I783
sS'constant'
p3557
I784
sS'adults'
p3558
I1729
sS'defined'
p3559
I1394
sS'm'
p3560
I2990
sS'specified'
p3561
I1926
sS'influence'
p3562
I1813
sS'engineering'
p3563
I2013
sS'cure'
p3564
I122
sS'nationalism'
p3565
I1395
sS'questionnaire'
p3566
I4035
sS'cotton'
p3567
I1730
sS'theyll'
p3568
I3204
sS'amounts'
p3569
I3098
sS'peace'
p3570
I1062
sS'fears'
p3571
I483
sS'matching'
p3572
I3106
sS'occasional'
p3573
I3810
sS'nick'
p3574
I1063
sS'points'
p3575
I1817
sS'electrical'
p3576
I4115
sS'income'
p3577
I2299
sS'department'
p3578
I485
sS'busy'
p3579
I3626
sS'inclined'
p3580
I4739
sS'nice'
p3581
I1064
sS'wished'
p3582
I4728
sS'draw'
p3583
I4116
sS'cellar'
p3584
I786
sS'provided'
p3585
I2224
sS'kansas'
p3586
I4117
sS'problems'
p3587
I3508
sS'prepared'
p3588
I3205
sS'replace'
p3589
I2363
sS'meaning'
p3590
I1065
sS'allowing'
p3591
I1066
sS'utterly'
p3592
I787
sS'formal'
p3593
I2560
sS'missile'
p3594
I1738
sS'sides'
p3595
I1396
sS'structure'
p3596
I4119
sS'mood'
p3597
I986
sS'ago'
p3598
I3812
sS'downtown'
p3599
I4308
sS'lane'
p3600
I204
sS'land'
p3601
I205
sS'e'
p3602
I487
sS'vice'
p3603
I3510
sS'tubes'
p3604
I2886
sS'navy'
p3605
I2971
sS'required'
p3606
I1731
sS'holes'
p3607
I2574
sS'walked'
p3608
I1397
sS'notion'
p3609
I1518
sS'depth'
p3610
I1732
sS'carrying'
p3611
I3834
sS'worn'
p3612
I3907
sS'narrative'
p3613
I3511
sS'far'
p3614
I4674
sS'fresh'
p3615
I1306
sS'requires'
p3616
I1733
sS'having'
p3617
I2575
sS'once'
p3618
I3512
sS'utopian'
p3619
I2576
sS'code'
p3620
I1398
sS'saying'
p3621
I38
sS'oral'
p3622
I4532
sS'issued'
p3623
I2300
sS'results'
p3624
I1399
sS'existing'
p3625
I3814
sS'illustrated'
p3626
I3815
sS'tip'
p3627
I4596
sS'gang'
p3628
I1943
sS'winds'
p3629
I1067
sS'particularly'
p3630
I4411
sS'conservative'
p3631
I1647
sS'mercer'
p3632
I1735
sS'kate'
p3633
I2888
sS'issues'
p3634
I2301
sS'seemed'
p3635
I2577
sS'bars'
p3636
I4698
sS'baseball'
p3637
I4609
sS'pope'
p3638
I4570
sS'detergent'
p3639
I3574
sS'radical'
p3640
I4688
sS'concerned'
p3641
I3817
sS'young'
p3642
I2578
sS'send'
p3643
I1400
sS'suits'
p3644
I2889
sS'literary'
p3645
I788
sS'oclock'
p3646
I4122
sS'helps'
p3647
I3206
sS'stable'
p3648
I2302
sS'suite'
p3649
I2890
sS'maryland'
p3650
I3207
sS'include'
p3651
I1070
sS'friendly'
p3652
I488
sS'resources'
p3653
I1319
sS'random'
p3654
I2118
sS'seized'
p3655
I3515
sS'presently'
p3656
I789
sS'outside'
p3657
I3406
sS'rayburn'
p3658
I2533
sS'continues'
p3659
I3818
sS'genius'
p3660
I4768
sS'schedule'
p3661
I3878
sS'wave'
p3662
I489
sS'electron'
p3663
I2303
sS'wishes'
p3664
I4729
sS'putting'
p3665
I2014
sS'literally'
p3666
I3876
sS'telling'
p3667
I490
sS'artery'
p3668
I3516
sS'drinking'
p3669
I2304
sS'southerners'
p3670
I3594
sS'categories'
p3671
I1404
sS'entire'
p3672
I790
sS'recreation'
p3673
I3208
sS'magic'
p3674
I2579
sS'stiff'
p3675
I4123
sS'harbor'
p3676
I206
sS'positions'
p3677
I491
sS'bonds'
p3678
I2620
sS'shock'
p3679
I4449
sS'attempts'
p3680
I4248
sS'fewer'
p3681
I207
sS'anxious'
p3682
I1331
sS'threat'
p3683
I4687
sS'race'
p3684
I1333
sS'dealt'
p3685
I4731
sS'havent'
p3686
I791
sS'inspection'
p3687
I4124
sS'14'
p3688
I3074
sS'sewage'
p3689
I173
sS'solutions'
p3690
I3314
sS'concluded'
p3691
I1071
sS'smaller'
p3692
I3517
sS'victim'
p3693
I3942
sS'participate'
p3694
I2393
sS'jump'
p3695
I492
sS'besides'
p3696
I2957
sS'picked'
p3697
I2892
sS'earth'
p3698
I4571
sS'growing'
p3699
I1871
sS'cat'
p3700
I2738
sS'odd'
p3701
I3821
sS'folk'
p3702
I1072
sS'victor'
p3703
I208
sS'universities'
p3704
I4733
sS'index'
p3705
I1405
sS'plays'
p3706
I4125
sS'business'
p3707
I4036
sS'paintings'
p3708
I2893
sS'morse'
p3709
I2581
sS'giving'
p3710
I2015
sS'colonel'
p3711
I2894
sS'slight'
p3712
I2059
sS'fat'
p3713
I4675
sS'expressed'
p3714
I2582
sS'find'
p3715
I4415
sS'access'
p3716
I793
sS'paying'
p3717
I2211
sS'waiting'
p3718
I4734
sS'experiment'
p3719
I758
sS'eating'
p3720
I4111
sS'currently'
p3721
I3784
sS'capital'
p3722
I3518
sS'obvious'
p3723
I3221
sS'firms'
p3724
I1406
sS'bird'
p3725
I1407
sS'exercise'
p3726
I3210
sS'can'
p3727
I2739
sS'body'
p3728
I4452
sS'completion'
p3729
I1695
sS'led'
p3730
I1408
sS'chose'
p3731
I1073
sS'degree'
p3732
I1074
sS'exchange'
p3733
I183
sS'got'
p3734
I2105
sS'gathered'
p3735
I3825
sS'commercial'
p3736
I2895
sS'highly'
p3737
I2652
sS'following'
p3738
I88
sS'objects'
p3739
I3211
sS'let'
p3740
I1411
sS'sink'
p3741
I4453
sS'others'
p3742
I4454
sS'sing'
p3743
I2160
sS'fifteen'
p3744
I209
sS'extreme'
p3745
I4455
sS'remark'
p3746
I2016
sS'arrive'
p3747
I4311
sS'talent'
p3748
I794
sS'pressure'
p3749
I261
sS'technical'
p3750
I2583
sS'involved'
p3751
I3829
sS'31'
p3752
I3213
sS'larger'
p3753
I1075
sS'alaska'
p3754
I4456
sS'35'
p3755
I3215
sS'leaving'
p3756
I1076
sS'engine'
p3757
I3413
sS'suggests'
p3758
I1077
sS'survey'
p3759
I210
sS'defeat'
p3760
I3830
sS'opinion'
p3761
I3831
sS'proof'
p3762
I4457
sS'makes'
p3763
I211
sS'honor'
p3764
I795
sS'involves'
p3765
I3832
sS'thats'
p3766
I212
sS'composed'
p3767
I796
sS'named'
p3768
I2017
sS'writer'
p3769
I2536
sS'although'
p3770
I3265
sS'clark'
p3771
I494
sS'heart'
p3772
I2740
sS'win'
p3773
I2896
sS'thin'
p3774
I3837
sS'crazy'
p3775
I1872
sS'private'
p3776
I2018
sS'bend'
p3777
I3838
sS'hardy'
p3778
I2005
sS'names'
p3779
I2019
sS'composer'
p3780
I797
sS'patrol'
p3781
I3523
sS'administration'
p3782
I4508
sS'tools'
p3783
I3833
sS'headed'
p3784
I4091
sS'cloud'
p3785
I779
sS'announced'
p3786
I2647
sS'standing'
p3787
I1412
sS'confidence'
p3788
I213
sS'exciting'
p3789
I2586
sS'from'
p3790
I1078
sS'stream'
p3791
I4613
sS'remains'
p3792
I2898
sS'hudson'
p3793
I2899
sS'examined'
p3794
I3447
sS'next'
p3795
I214
sS'eleven'
p3796
I1388
sS'camera'
p3797
I495
sS'examination'
p3798
I1079
sS'counties'
p3799
I2636
sS'vehicle'
p3800
I4130
sS'd'
p3801
I2561
sS'themselves'
p3802
I2020
sS'stage'
p3803
I1464
sS'reflects'
p3804
I1737
sS'touched'
p3805
I3627
sS'sort'
p3806
I2310
sS'pencil'
p3807
I215
sS'winston'
p3808
I3043
sS'comparison'
p3809
I4037
sS'started'
p3810
I2900
sS'initial'
p3811
I3999
sS'calling'
p3812
I2756
sS'musician'
p3813
I2311
sS'occurred'
p3814
I1414
sS'wildly'
p3815
I4562
sS'charming'
p3816
I496
sS'meant'
p3817
I2618
sS'trail'
p3818
I3217
sS'train'
p3819
I3218
sS'sharply'
p3820
I1415
sS'east'
p3821
I3645
sS'baby'
p3822
I216
sS'actual'
p3823
I3267
sS'christianity'
p3824
I4662
sS'appointed'
p3825
I497
sS'whisky'
p3826
I4132
sS'customer'
p3827
I1402
sS'majority'
p3828
I3169
sS'account'
p3829
I3219
sS'animals'
p3830
I3835
sS'f'
p3831
I3220
sS'this'
p3832
I3836
sS'challenge'
p3833
I2587
sS'oh'
p3834
I2227
sS'worlds'
p3835
I3535
sS'lumber'
p3836
I2312
sS'crossed'
p3837
I2901
sS'publications'
p3838
I2588
sS'servants'
p3839
I498
sS'of'
p3840
I2228
sS'industrial'
p3841
I4560
sS'meet'
p3842
I3212
sS'closing'
p3843
I798
sS'didnt'
p3844
I799
sS'rehabilitation'
p3845
I800
sS'performed'
p3846
I2172
sS'control'
p3847
I4134
sS'continuity'
p3848
I3315
sS'slid'
p3849
I2589
sS'reserved'
p3850
I3223
sS'bent'
p3851
I1417
sS'do'
p3852
I1521
sS'process'
p3853
I217
sS'lock'
p3854
I218
sS'rode'
p3855
I219
sS'purposes'
p3856
I3839
sS'pieces'
p3857
I3840
sS'high'
p3858
I1418
sS'effectively'
p3859
I2021
sS'assumptions'
p3860
I1080
sS'pulling'
p3861
I3222
sS'urged'
p3862
I2351
sS'sought'
p3863
I500
sS'wonderful'
p3864
I2840
sS'locking'
p3865
I2313
sS'skirt'
p3866
I2902
sS'native'
p3867
I4460
sS'summers'
p3868
I2314
sS'educational'
p3869
I220
sS'united'
p3870
I2315
sS'varied'
p3871
I801
sS'democracy'
p3872
I3224
sS'sit'
p3873
I3525
sS'protect'
p3874
I3255
sS'holds'
p3875
I802
sS'poetry'
p3876
I1739
sS'arrangement'
p3877
I2903
sS'regions'
p3878
I2022
sS'located'
p3879
I1740
sS'need'
p3880
I4153
sS'forest'
p3881
I3226
sS'animal'
p3882
I1420
sS'brannon'
p3883
I4251
sS'instead'
p3884
I3528
sS'comedy'
p3885
I221
sS'intelligent'
p3886
I222
sS'sin'
p3887
I3529
sS'greatly'
p3888
I1650
sS'tension'
p3889
I2316
sS'buildings'
p3890
I2023
sS'blocks'
p3891
I1421
sS'attend'
p3892
I2032
sS'sir'
p3893
I3524
sS'farm'
p3894
I502
sS'watch'
p3895
I3316
sS'waters'
p3896
I4463
sS'philosophy'
p3897
I2024
sS'tied'
p3898
I3842
sS'fluid'
p3899
I3317
sS'independent'
p3900
I3940
sS'bench'
p3901
I2054
sS'preferred'
p3902
I3933
sS'share'
p3903
I4387
sS'ambiguous'
p3904
I3228
sS'realized'
p3905
I223
sS'bombers'
p3906
I4465
sS'institute'
p3907
I4302
sS'light'
p3908
I3530
sS'counter'
p3909
I2591
sS'lines'
p3910
I4466
sS'trembling'
p3911
I803
sS'commodities'
p3912
I2593
sS'chief'
p3913
I4467
sS'courage'
p3914
I1981
sS'allow'
p3915
I1423
sS'volunteers'
p3916
I3843
sS'divided'
p3917
I3675
sS'furnish'
p3918
I4468
sS'preparing'
p3919
I3531
sS'houston'
p3920
I224
sS'six'
p3921
I3526
sS'hanover'
p3922
I4120
sS'insight'
p3923
I225
sS'encouraged'
p3924
I4642
sS'quietly'
p3925
I2025
sS'interpreted'
p3926
I1082
sS'symbols'
p3927
I805
sS'own'
p3928
I2352
sS'including'
p3929
I503
sS'looks'
p3930
I2317
sS'mentioned'
p3931
I4136
sS'agricultural'
p3932
I3229
sS'fortunate'
p3933
I4742
sS'warren'
p3934
I2595
sS'perfect'
p3935
I226
sS'superior'
p3936
I1083
sS'outer'
p3937
I2905
sS'bridget'
p3938
I4470
sS'la'
p3939
I2027
sS'chosen'
p3940
I2596
sS'lo'
p3941
I2028
sS'masses'
p3942
I4137
sS'ships'
p3943
I2318
sS'responsibilities'
p3944
I4461
sS'winning'
p3945
I720
sS'mental'
p3946
I4392
sS'age'
p3947
I3813
sS'permanent'
p3948
I2319
sS'degrees'
p3949
I2597
sS'trustees'
p3950
I2159
sS'communication'
p3951
I2230
sS'orange'
p3952
I2320
sS'puerto'
p3953
I1424
sS'criminal'
p3954
I2030
sS'definitely'
p3955
I4246
sS'designs'
p3956
I1425
sS'youd'
p3957
I4039
sS'pure'
p3958
I1877
sS'spencer'
p3959
I4586
sS'auto'
p3960
I1741
sS'dan'
p3961
I4472
sS'material'
p3962
I3532
sS'barn'
p3963
I4704
sS'flew'
p3964
I3533
sS'mention'
p3965
I4473
sS'cutting'
p3966
I4474
sS'snake'
p3967
I227
sS'hands'
p3968
I2906
sS'front'
p3969
I4139
sS'republican'
p3970
I1084
sS'realize'
p3971
I228
sS'presidential'
p3972
I2598
sS'articles'
p3973
I1085
sS'february'
p3974
I3232
sS'urge'
p3975
I3399
sS'profound'
p3976
I2321
sS'establishment'
p3977
I3841
sS'university'
p3978
I505
sS'covering'
p3979
I2682
sS'identified'
p3980
I4477
sS'arlene'
p3981
I2031
sS'delightful'
p3982
I1426
sS'doesnt'
p3983
I2062
sS'mode'
p3984
I1742
sS'truth'
p3985
I2599
sS'pools'
p3986
I1743
sS'accounts'
p3987
I3431
sS'beneath'
p3988
I3847
sS'circular'
p3989
I2904
sS'shaking'
p3990
I2908
sS'depression'
p3991
I4450
sS'experienced'
p3992
I2847
sS'glasses'
p3993
I229
sS'eastern'
p3994
I3634
sS'jones'
p3995
I4288
sS'doing'
p3996
I3848
sS'wood'
p3997
I4637
sS'deegan'
p3998
I1086
sS'strip'
p3999
I3111
sS'related'
p4000
I3538
sS'constitute'
p4001
I507
sS'society'
p4002
I3849
sS'books'
p4003
I230
sS'measure'
p4004
I4142
sS'our'
p4005
I2071
sS'80'
p4006
I3539
sS'bay'
p4007
I4253
sS'sexual'
p4008
I806
sS'witness'
p4009
I231
sS'out'
p4010
I1087
sS'category'
p4011
I4747
sS'respects'
p4012
I4748
sS'sentiment'
p4013
I1088
sS'entertainment'
p4014
I509
sS'defend'
p4015
I2033
sS'rev'
p4016
I2034
sS'day'
p4017
I4475
sS'wholly'
p4018
I2035
sS'settlement'
p4019
I2239
sS'critics'
p4020
I4314
sS'mate'
p4021
I3234
sS'socalled'
p4022
I807
sS'tilghman'
p4023
I3276
sS'electronics'
p4024
I2646
sS'cromwell'
p4025
I1428
sS'cause'
p4026
I510
sS'dive'
p4027
I4750
sS'red'
p4028
I2036
sS'shut'
p4029
I3850
sS'approached'
p4030
I808
sS'dictionary'
p4031
I4751
sS'wines'
p4032
I4143
sS'frank'
p4033
I2037
sS'recommendations'
p4034
I2856
sS'promptly'
p4035
I2322
sS'fourteen'
p4036
I809
sS'attending'
p4037
I4144
sS'approaches'
p4038
I810
sS'surely'
p4039
I1429
sS'collection'
p4040
I4464
sS'trends'
p4041
I1718
sS'thrust'
p4042
I3851
sS'van'
p4043
I2323
sS'reporters'
p4044
I2538
sS'resumed'
p4045
I511
sS'allies'
p4046
I811
sS'her'
p4047
I2488
sS'g'
p4048
I1090
sS'determining'
p4049
I512
sS'could'
p4050
I232
sS'area'
p4051
I4041
sS'put'
p4052
I1687
sS'times'
p4053
I514
sS'conversation'
p4054
I4753
sS'length'
p4055
I233
sS'allied'
p4056
I812
sS'hence'
p4057
I1091
sS'ears'
p4058
I599
sS'housing'
p4059
I1469
sS'south'
p4060
I4479
sS'mankind'
p4061
I3047
sS'prospective'
p4062
I4146
sS'plastics'
p4063
I2659
sS'martin'
p4064
I4185
sS'powerful'
p4065
I3293
sS'scene'
p4066
I234
sS'reaches'
p4067
I298
sS'jesus'
p4068
I1434
sS'walter'
p4069
I4097
sS'congo'
p4070
I876
sS'choose'
p4071
I4744
sS'owner'
p4072
I1435
sS'reached'
p4073
I813
sS'precisely'
p4074
I2910
sS'quality'
p4075
I4147
sS'straight'
p4076
I2551
sS'legislative'
p4077
I1436
sS'management'
p4078
I2911
sS'reference'
p4079
I1821
sS'los'
p4080
I2805
sS'festival'
p4081
I235
sS'unknown'
p4082
I1093
sS'demonstration'
p4083
I4484
sS'assure'
p4084
I2045
sS'system'
p4085
I2600
sS'adopted'
p4086
I885
sS'grow'
p4087
I1880
sS'their'
p4088
I3543
sS'attack'
p4089
I1747
sS'intermediate'
p4090
I815
sS'sergeant'
p4091
I236
sS'time'
p4092
I3662
sS'perfectly'
p4093
I3306
sS'branches'
p4094
I4616
sS'liquor'
p4095
I3237
sS'painful'
p4096
I1437
sS'beard'
p4097
I886
sS'interests'
p4098
I237
sS'shell'
p4099
I3544
sS'vigorous'
p4100
I238
sS'lot'
p4101
I2807
sS'shorts'
p4102
I1515
sS'academy'
p4103
I4568
sS'explanation'
p4104
I816
sS'nobody'
p4105
I311
sS'debate'
p4106
I4760
sS'lists'
p4107
I516
sS'expressing'
p4108
I4367
sS'shall'
p4109
I3623
sS'historian'
p4110
I4239
sS'too'
p4111
I3303
sS'deeply'
p4112
I2250
sS'july'
p4113
I3545
sS'foams'
p4114
I317
sS'herself'
p4115
I1748
sS'institution'
p4116
I4755
sS'neck'
p4117
I3050
sS'steel'
p4118
I1438
sS'resist'
p4119
I3240
sS'colleagues'
p4120
I1439
sS'ben'
p4121
I1749
sS'warfare'
p4122
I2601
sS'things'
p4123
I3639
sS'bother'
p4124
I2602
sS'submitted'
p4125
I517
sS'prokofieff'
p4126
I4152
sS'roberts'
p4127
I2603
sS'patients'
p4128
I2325
sS'individual'
p4129
I2237
sS'loves'
p4130
I4483
sS'identical'
p4131
I4779
sS'visited'
p4132
I325
sS'providing'
p4133
I1751
sS'distinguished'
p4134
I1752
sS'result'
p4135
I3629
sS'exhibit'
p4136
I1753
sS'false'
p4137
I239
sS'lightly'
p4138
I1754
sS'catholics'
p4139
I4665
sS'gently'
p4140
I2605
sS'comfortable'
p4141
I2038
sS'tonight'
p4142
I240
sS'discussions'
p4143
I320
sS'unlikely'
p4144
I3241
sS'have'
p4145
I818
sS'close'
p4146
I459
sS'throat'
p4147
I819
sS'element'
p4148
I2592
sS'apparently'
p4149
I3242
sS'clearly'
p4150
I1440
sS'viewed'
p4151
I3852
sS'catholic'
p4152
I3546
sS'issue'
p4153
I2838
sS'angle'
p4154
I3547
sS'pupils'
p4155
I1094
sS'dishes'
p4156
I241
sS'hypothalamic'
p4157
I1538
sS'studying'
p4158
I1441
sS'separate'
p4159
I4669
sS'agency'
p4160
I4756
sS'mills'
p4161
I2607
sS'mechanism'
p4162
I1442
sS'contact'
p4163
I2699
sS'instance'
p4164
I1755
sS'relatives'
p4165
I518
sS'concerns'
p4166
I820
sS'which'
p4167
I3549
sS'funds'
p4168
I4792
sS'linda'
p4169
I1544
sS'subject'
p4170
I3000
sS'soap'
p4171
I2687
sS'accuracy'
p4172
I2608
sS'unless'
p4173
I4486
sS'horn'
p4174
I2649
sS'combat'
p4175
I2326
sS'knees'
p4176
I3782
sS'who'
p4177
I1095
sS'scenes'
p4178
I2671
sS'intentions'
p4179
I2912
sS'eight'
p4180
I2039
sS'preliminary'
p4181
I4487
sS'device'
p4182
I3853
sS'sophisticated'
p4183
I3112
sS'gallery'
p4184
I519
sS'spirits'
p4185
I2541
sS'deny'
p4186
I4757
sS'joseph'
p4187
I3655
sS'consequences'
p4188
I1756
sS'sandburg'
p4189
I4157
sS'neighboring'
p4190
I3551
sS'enthusiastic'
p4191
I2040
sS'request'
p4192
I346
sS'disease'
p4193
I822
sS'psychological'
p4194
I2408
sS'face'
p4195
I2610
sS'looked'
p4196
I2327
sS'lowered'
p4197
I2637
sS'talk'
p4198
I3054
sS'mechanical'
p4199
I2611
sS'occasion'
p4200
I823
sS'painting'
p4201
I2612
sS'fact'
p4202
I2613
sS'goals'
p4203
I2942
sS'son'
p4204
I2414
sS'affair'
p4205
I1757
sS'atmosphere'
p4206
I3855
sS'parker'
p4207
I1758
sS'improvement'
p4208
I4032
sS'chances'
p4209
I3552
sS'text'
p4210
I4489
sS'agreed'
p4211
I1097
sS'charles'
p4212
I2041
sS'scotty'
p4213
I1561
sS'anyway'
p4214
I1759
sS'guest'
p4215
I3350
sS'bring'
p4216
I2614
sS'planning'
p4217
I2328
sS'manchester'
p4218
I1443
sS'parked'
p4219
I1760
sS'bedroom'
p4220
I3973
sS'soldiers'
p4221
I4159
sS'fear'
p4222
I1098
sS'longer'
p4223
I4600
sS'pleased'
p4224
I2166
sS'decade'
p4225
I2615
sS'principal'
p4226
I2616
sS'communism'
p4227
I824
sS'based'
p4228
I2913
sS'knowledge'
p4229
I825
sS'tire'
p4230
I2914
sS'pressures'
p4231
I2396
sS'holder'
p4232
I2189
sS'unions'
p4233
I4706
sS'controls'
p4234
I3246
sS'should'
p4235
I2617
sS'jan'
p4236
I242
sS'won'
p4237
I1701
sS'tape'
p4238
I243
sS'employee'
p4239
I4160
sS'riding'
p4240
I244
sS'communist'
p4241
I826
sS'partially'
p4242
I2066
sS'local'
p4243
I1099
sS'achieve'
p4244
I521
sS'regularly'
p4245
I827
sS'move'
p4246
I2594
sS'handle'
p4247
I1574
sS'listened'
p4248
I2619
sS'cuba'
p4249
I1100
sS'fellow'
p4250
I4374
sS'mainly'
p4251
I3555
sS'michigan'
p4252
I4162
sS'overall'
p4253
I4163
sS'lucky'
p4254
I3859
sS'bear'
p4255
I4491
sS'vehicles'
p4256
I2495
sS'joint'
p4257
I4164
sS'ones'
p4258
I4764
sS'fallout'
p4259
I4165
sS'werent'
p4260
I951
sS'wise'
p4261
I2067
sS'doubtful'
p4262
I3844
sS'procedures'
p4263
I2916
sS'areas'
p4264
I2743
sS'gray'
p4265
I2917
sS'processes'
p4266
I2918
sS'substrate'
p4267
I4493
sS'shu'
p4268
I1761
sS'trucks'
p4269
I3381
sS'brain'
p4270
I2330
sS'numerous'
p4271
I3481
sS'palmer'
p4272
I4723
sS'hills'
p4273
I1541
sS'state'
p4274
I4169
sS'taxes'
p4275
I245
sS'teams'
p4276
I828
sS'stuff'
p4277
I246
sS'she'
p4278
I1762
sS'contain'
p4279
I955
sS'ohio'
p4280
I247
sS'fixed'
p4281
I829
sS'experiences'
p4282
I2848
sS'generations'
p4283
I4766
sS'widow'
p4284
I522
sS'available'
p4285
I2542
sS'requirement'
p4286
I1102
sS'j'
p4287
I4527
sS'computed'
p4288
I4166
sS'exists'
p4289
I4494
sS'acquired'
p4290
I3556
sS'variations'
p4291
I2069
sS'frame'
p4292
I248
sS'pitch'
p4293
I4167
sS'bid'
p4294
I4435
sS'edition'
p4295
I1445
sS'intensity'
p4296
I830
sS'officials'
p4297
I523
sS'powder'
p4298
I4168
sS'desperate'
p4299
I2919
sS'operated'
p4300
I524
sS'expects'
p4301
I4549
sS'responses'
p4302
I4421
sS'closer'
p4303
I4767
sS'phases'
p4304
I4495
sS'interview'
p4305
I2656
sS'destiny'
p4306
I249
sS'attempting'
p4307
I831
sS'nuclear'
p4308
I250
sS'partisan'
p4309
I1446
sS'ralph'
p4310
I3248
sS'tend'
p4311
I525
sS'favor'
p4312
I1103
sS'written'
p4313
I962
sS'difficulties'
p4314
I395
sS'identification'
p4315
I1104
sS'closed'
p4316
I4769
sS'routine'
p4317
I4496
sS'stories'
p4318
I2946
sS'neither'
p4319
I1764
sS'pistol'
p4320
I2621
sS'youll'
p4321
I3862
sS'complement'
p4322
I4770
sS'midnight'
p4323
I4619
sS'bought'
p4324
I1105
sS'industries'
p4325
I2026
sS'ends'
p4326
I2622
sS'george'
p4327
I4628
sS'ability'
p4328
I1106
sS'opening'
p4329
I1107
sS'importance'
p4330
I4170
sS'joy'
p4331
I1108
sS'agencies'
p4332
I3557
sS'pursuant'
p4333
I3249
sS'efficiency'
p4334
I4171
sS'job'
p4335
I1109
sS'joe'
p4336
I1110
sS'historians'
p4337
I1447
sS'approval'
p4338
I1766
sS'precious'
p4339
I1767
sS'swift'
p4340
I3558
sS'distribution'
p4341
I2639
sS'garden'
p4342
I1403
sS'staring'
p4343
I251
sS'restrictions'
p4344
I1448
sS'hits'
p4345
I526
sS'piece'
p4346
I4195
sS'instant'
p4347
I2043
sS'limits'
p4348
I527
sS'career'
p4349
I4173
sS'joke'
p4350
I833
sS'invited'
p4351
I2623
sS'theyd'
p4352
I3881
sS'equal'
p4353
I834
sS'drug'
p4354
I1449
sS'agree'
p4355
I1296
sS'april'
p4356
I1111
sS'admit'
p4357
I2921
sS'harvard'
p4358
I4258
sS'figures'
p4359
I1450
sS'glory'
p4360
I4525
sS'passing'
p4361
I2046
sS'candidates'
p4362
I4762
sS'kinds'
p4363
I2347
sS'jersey'
p4364
I1769
sS'grounds'
p4365
I1112
sS'comment'
p4366
I2047
sS'strongly'
p4367
I3820
sS'adjusted'
p4368
I1451
sS'torn'
p4369
I2449
sS'co'
p4370
I1452
sS'cm'
p4371
I1453
sS'wall'
p4372
I2220
sS'tuesday'
p4373
I528
sS'supreme'
p4374
I4528
sS'walk'
p4375
I3559
sS'concepts'
p4376
I3606
sS'laugh'
p4377
I2048
sS'news'
p4378
I899
sS'respect'
p4379
I2331
sS'pulmonary'
p4380
I4660
sS'acres'
p4381
I2029
sS'poem'
p4382
I4175
sS'remarkable'
p4383
I4603
sS'second'
p4384
I3587
sS'maid'
p4385
I4319
sS'addition'
p4386
I1770
sS'discrimination'
p4387
I1771
sS'depending'
p4388
I4719
sS'cent'
p4389
I529
sS'shame'
p4390
I1831
sS'rhode'
p4391
I2624
sS'liberals'
p4392
I530
sS'willing'
p4393
I3230
sS'slowly'
p4394
I2923
sS'treat'
p4395
I4176
sS'tv'
p4396
I2502
sS'poet'
p4397
I4177
sS'proposal'
p4398
I3253
sS'improve'
p4399
I2125
sS'louisiana'
p4400
I2625
sS'define'
p4401
I4501
sS'faced'
p4402
I3254
sS'shoulders'
p4403
I531
sS'describe'
p4404
I1655
sS'controlled'
p4405
I532
sS'both'
p4406
I4088
sS'painted'
p4407
I2333
sS'moved'
p4408
I1656
sS'sufficient'
p4409
I4668
sS'essentially'
p4410
I2049
sS'sales'
p4411
I1657
sS'finished'
p4412
I3256
sS'accident'
p4413
I3631
sS'mail'
p4414
I4320
sS'improved'
p4415
I3787
sS'atlanta'
p4416
I1454
sS'general'
p4417
I3115
sS'despite'
p4418
I804
sS'painter'
p4419
I2334
sS'precise'
p4420
I4339
sS'homes'
p4421
I4502
sS'novel'
p4422
I1773
sS'abandoned'
p4423
I3562
sS'unlike'
p4424
I3563
sS'plain'
p4425
I4503
sS'harder'
p4426
I4178
sS'as'
p4427
I1303
sS'value'
p4428
I2814
sS'will'
p4429
I4772
sS'country'
p4430
I2397
sS'wild'
p4431
I4773
sS'balance'
p4432
I4264
sS'carleton'
p4433
I1672
sS'supply'
p4434
I1984
sS'barely'
p4435
I3788
sS'file'
p4436
I4505
sS'almost'
p4437
I1314
sS'thus'
p4438
I2253
sS'site'
p4439
I2626
sS'surface'
p4440
I533
sS'helped'
p4441
I4506
sS'arrangements'
p4442
I836
sS'opportunities'
p4443
I3903
sS'demanded'
p4444
I3632
sS'politics'
p4445
I2234
sS'claimed'
p4446
I4507
sS'partner'
p4447
I837
sS'greater'
p4448
I3231
sS'stands'
p4449
I3478
sS'ing'
p4450
I2642
sS'perhaps'
p4451
I1114
sS'began'
p4452
I4180
sS'views'
p4453
I4322
sS'radiation'
p4454
I2335
sS'cross'
p4455
I2336
sS'member'
p4456
I2337
sS'unity'
p4457
I4444
sS'strange'
p4458
I2925
sS'speaker'
p4459
I534
sS'northwest'
p4460
I535
sS'largest'
p4461
I2260
sS'units'
p4462
I2261
sS'party'
p4463
I536
sS'gets'
p4464
I3565
sS'difficult'
p4465
I1115
sS'ball'
p4466
I1455
sS'slave'
p4467
I1116
sS'slightly'
p4468
I3653
sS'novels'
p4469
I4509
sS'flesh'
p4470
I2629
sS'conceived'
p4471
I1117
sS'upon'
p4472
I3867
sS'mutual'
p4473
I3582
sS'tsunami'
p4474
I3731
sS'student'
p4475
I3566
sS'dust'
p4476
I1456
sS'frequently'
p4477
I2927
sS'judgment'
p4478
I4510
sS'scholars'
p4479
I4511
sS'identity'
p4480
I253
sS'destruction'
p4481
I537
sS'insure'
p4482
I4512
sS'scarcely'
p4483
I538
sS'argue'
p4484
I2399
sS'off'
p4485
I254
sS'reflection'
p4486
I1774
sS'records'
p4487
I1256
sS'nevertheless'
p4488
I838
sS'builder'
p4489
I839
sS'variety'
p4490
I1477
sS'well'
p4491
I2928
sS'fighting'
p4492
I2339
sS'asked'
p4493
I3633
sS'thought'
p4494
I4513
sS'patterns'
p4495
I255
sS'1956'
p4496
I2747
sS'command'
p4497
I1457
sS'baltimore'
p4498
I763
sS'corporation'
p4499
I539
sS'position'
p4500
I2849
sS'muscle'
p4501
I3257
sS'soviet'
p4502
I3258
sS'drawing'
p4503
I2628
sS'latest'
p4504
I2053
sS'stores'
p4505
I840
sS'cried'
p4506
I2340
sS'heavily'
p4507
I2275
sS'increasingly'
p4508
I540
sS'khrushchev'
p4509
I3567
sS'accurate'
p4510
I1777
sS'1952'
p4511
I2750
sS'wagner'
p4512
I3259
sS'obtain'
p4513
I3568
sS'belgians'
p4514
I2175
sS'forests'
p4515
I3890
sS'inadequate'
p4516
I3581
sS'sources'
p4517
I4182
sS'stored'
p4518
I457
sS'distant'
p4519
I541
sS'fishing'
p4520
I2341
sS'tough'
p4521
I4517
sS'paul'
p4522
I3869
sS'antisemitism'
p4523
I2277
sS'drying'
p4524
I3607
sS'happiness'
p4525
I4777
sS'generous'
p4526
I1459
sS'rapid'
p4527
I2342
sS'farther'
p4528
I2701
sS'density'
p4529
I542
sS'residential'
p4530
I1460
sS'drunk'
p4531
I1365
sS'smith'
p4532
I3569
sS'studio'
p4533
I2087
sS'capabilities'
p4534
I2343
sS'killed'
p4535
I1889
sS'simple'
p4536
I3180
sS'add'
p4537
I3260
sS'book'
p4538
I4794
sS'nato'
p4539
I1779
sS'developments'
p4540
I3489
sS'wet'
p4541
I257
sS'executive'
p4542
I4515
sS'5'
p4543
I4667
sS'tax'
p4544
I4458
sS'ought'
p4545
I841
sS'advanced'
p4546
I4587
sS'smart'
p4547
I1118
sS'details'
p4548
I271
sS'resolved'
p4549
I842
sS'tests'
p4550
I2056
sS'increased'
p4551
I3870
sS'provisions'
p4552
I1119
sS'government'
p4553
I2631
sS'characters'
p4554
I4582
sS'masters'
p4555
I4140
sS'increases'
p4556
I3871
sS'historic'
p4557
I1050
sS'five'
p4558
I3872
sS'whatever'
p4559
I4094
sS'burden'
p4560
I4184
sS'desk'
p4561
I3873
sS'press'
p4562
I1121
sS'immediately'
p4563
I2929
sS'palfrey'
p4564
I3571
sS'prominent'
p4565
I1781
sS'loss'
p4566
I543
sS'lincoln'
p4567
I3499
sS'necessary'
p4568
I544
sS'like'
p4569
I843
sS'success'
p4570
I844
sS'chairs'
p4571
I2632
sS'admitted'
p4572
I845
sS'testimony'
p4573
I4038
sS'taxpayers'
p4574
I4782
sS'garage'
p4575
I3874
sS'dancer'
p4576
I3182
sS'payments'
p4577
I546
sS'lose'
p4578
I547
sS'become'
p4579
I258
sS'works'
p4580
I2057
sS'soft'
p4581
I4519
sS'page'
p4582
I2930
sS'suddenly'
p4583
I4679
sS'replacement'
p4584
I1461
sS'amendment'
p4585
I2634
sS'shed'
p4586
I4186
sS'unable'
p4587
I2684
sS'classical'
p4588
I846
sS'sequence'
p4589
I4784
sS'scared'
p4590
I3573
sS'church'
p4591
I2546
sS'phenomena'
p4592
I2931
sS'searching'
p4593
I4785
sS'library'
p4594
I548
sS'hair'
p4595
I847
sS'francisco'
p4596
I1478
sS'shes'
p4597
I1061
sS'recommendation'
p4598
I848
sS'proper'
p4599
I3264
sS'home'
p4600
I549
sS'empire'
p4601
I4786
sS'peter'
p4602
I2933
sS'employment'
p4603
I1123
sS'recognition'
p4604
I259
sS'happens'
p4605
I849
sS'bangjensen'
p4606
I2635
sS'monday'
p4607
I3891
sS'lead'
p4608
I4787
sS'billy'
p4609
I3536
sS'broad'
p4610
I550
sS'avoid'
p4611
I1462
sS'delaware'
p4612
I2934
sS'mines'
p4613
I2348
sS'disk'
p4614
I3436
sS'shelter'
p4615
I2058
sS'does'
p4616
I3877
sS'passion'
p4617
I260
sS'economical'
p4618
I4521
sS'warned'
p4619
I4476
sS'leader'
p4620
I4788
sS'demonstrated'
p4621
I551
sS'limitations'
p4622
I552
sS'poets'
p4623
I4749
sS'noise'
p4624
I2891
sS'reaching'
p4625
I553
sS'journal'
p4626
I2935
sS'expansion'
p4627
I1782
sS'peas'
p4628
I2809
sS'lieutenant'
p4629
I850
sS'doctors'
p4630
I3164
sS'benefit'
p4631
I4034
sS'1954'
p4632
I2745
sS'worthy'
p4633
I2897
sS'r'
p4634
I2192
sS'loans'
p4635
I3880
sS'swept'
p4636
I2123
sS'science'
p4637
I1318
sS'gained'
p4638
I1465
sS'pike'
p4639
I1124
sS'sister'
p4640
I1466
sS'bills'
p4641
I3537
sS'rare'
p4642
I1125
sS'carried'
p4643
I1126
sS'extension'
p4644
I2349
sS'saddle'
p4645
I4741
sS'column'
p4646
I2350
sS'freedom'
p4647
I2936
sS'certainty'
p4648
I499
sS'recognized'
p4649
I1081
sS'angeles'
p4650
I1467
sS'monthly'
p4651
I3792
sS'carries'
p4652
I1127
sS'seeds'
p4653
I1468
sS'sweat'
p4654
I3576
sS'tongue'
p4655
I2937
sS'introduced'
p4656
I851
sS'persuaded'
p4657
I4187
sS'swimming'
p4658
I262
sS'equally'
p4659
I2938
sS'rendered'
p4660
I2061
sS'letters'
p4661
I263
sS'suited'
p4662
I2810
sS'previously'
p4663
I554
sS'washington'
p4664
I2939
sS'functional'
p4665
I3268
sS'due'
p4666
I2281
sS'charges'
p4667
I4028
sS'guard'
p4668
I4524
sS'weather'
p4669
I1128
sS'promise'
p4670
I1129
sS'been'
p4671
I2127
sS'female'
p4672
I506
sS'joyce'
p4673
I1745
sS'roads'
p4674
I3882
sS'couldnt'
p4675
I2940
sS'quickly'
p4676
I3326
sS'mere'
p4677
I3883
sS'utility'
p4678
I4190
sS'mississippi'
p4679
I1783
sS'accused'
p4680
I1763
sS'additional'
p4681
I555
sS'rushed'
p4682
I513
sS'transfer'
p4683
I2324
sS'museum'
p4684
I1092
sS'reduction'
p4685
I4713
sS'spots'
p4686
I3885
sS'noticed'
p4687
I1784
sS'contributions'
p4688
I4727
sS'lonely'
p4689
I3378
sS'much'
p4690
I53
sS'inner'
p4691
I1785
sS'biggest'
p4692
I3269
sS'naturally'
p4693
I1470
sS'function'
p4694
I1471
sS'building'
p4695
I4046
sS'buy'
p4696
I2063
sS'north'
p4697
I556
sS'stadium'
p4698
I2400
sS'aircraft'
p4699
I4422
sS'bus'
p4700
I2064
sS'quiney'
p4701
I3886
sS'but'
p4702
I2065
sS'transformed'
p4703
I1543
sS'volume'
p4704
I1130
sS'repeated'
p4705
I520
sS'construction'
p4706
I1472
sS'gain'
p4707
I557
sS'courts'
p4708
I2943
sS'beat'
p4709
I4490
sS'highest'
p4710
I558
sS'eat'
p4711
I2945
sS'he'
p4712
I1786
sS'count'
p4713
I4161
sS'made'
p4714
I3577
sS'tossed'
p4715
I264
sS'places'
p4716
I265
sS'noon'
p4717
I3732
sS'whether'
p4718
I3578
sS'wish'
p4719
I2068
sS'cells'
p4720
I4192
sS'official'
p4721
I1473
sS'smooth'
p4722
I1474
sS'particle'
p4723
I4658
sS'authority'
p4724
I3263
sS'excitement'
p4725
I266
sS'placed'
p4726
I267
sS'below'
p4727
I3579
sS'frequency'
p4728
I3888
sS'limit'
p4729
I1787
sS'ruling'
p4730
I3580
sS'monument'
p4731
I3889
sS'demonstrate'
p4732
I2355
sS'problem'
p4733
I268
sS'pm'
p4734
I2284
sS'minutes'
p4735
I2070
sS'display'
p4736
I559
sS'bearing'
p4737
I1475
sS'irish'
p4738
I2640
sS'begun'
p4739
I2181
sS'recognize'
p4740
I1476
sS'universal'
p4741
I560
sS'contribute'
p4742
I2641
sS'periods'
p4743
I853
sS'aristotle'
p4744
I269
sS'pip'
p4745
I4529
sS'partly'
p4746
I1705
sS'education'
p4747
I561
sS'campus'
p4748
I2638
sS'worse'
p4749
I2244
sS'cavalry'
p4750
I4197
sS'functions'
p4751
I562
sS'compared'
p4752
I270
sS'incredible'
p4753
I1131
sS'dressed'
p4754
I854
sS'45'
p4755
I3270
sS'percent'
p4756
I4776
sS'detail'
p4757
I855
sS'40'
p4758
I3271
sS'easy'
p4759
I3643
sS'westminster'
p4760
I4199
sS'old'
p4761
I3649
sS'other'
p4762
I2356
sS'special'
p4763
I508
sS'normal'
p4764
I4336
sS'u'
p4765
I716
sS'illusion'
p4766
I272
sS'conclusion'
p4767
I1132
sS'repeat'
p4768
I273
sS'star'
p4769
I563
sS'waves'
p4770
I2518
sS'consisted'
p4771
I4410
sS'worker'
p4772
I2401
sS'class'
p4773
I3550
sS'june'
p4774
I4796
sS'ultimately'
p4775
I2182
sS'variation'
p4776
I2072
sS'stay'
p4777
I564
sS'chance'
p4778
I3892
sS'rural'
p4779
I4200
sS'basement'
p4780
I4085
sS'astronomy'
p4781
I4531
sS'friends'
p4782
I2947
sS'vein'
p4783
I2643
sS'exposure'
p4784
I274
sS'parttime'
p4785
I3893
sS'difficulty'
p4786
I4395
sS'resolution'
p4787
I4375
sS'baker'
p4788
I2073
sS'frontier'
p4789
I3540
sS'rule'
p4790
I3894
sS'portion'
p4791
I4202
sS'lift'
p4792
I1195
sS'compete'
p4793
I275
sS'volumes'
p4794
I3583
sS'ideological'
p4795
I2357
sS'understand'
p4796
I1989
sS'gardens'
p4797
I276
s.